
a.out:     file format elf64-x86-64


Disassembly of section .init:

0000000000004000 <_init>:
    4000:	f3 0f 1e fa          	endbr64
    4004:	48 83 ec 08          	sub    rsp,0x8
    4008:	48 8b 05 c9 1f 02 00 	mov    rax,QWORD PTR [rip+0x21fc9]        # 25fd8 <__gmon_start__@Base>
    400f:	48 85 c0             	test   rax,rax
    4012:	74 02                	je     4016 <_init+0x16>
    4014:	ff d0                	call   rax
    4016:	48 83 c4 08          	add    rsp,0x8
    401a:	c3                   	ret

Disassembly of section .plt:

0000000000004020 <_ZSt8to_charsPcS_f@plt-0x10>:
    4020:	ff 35 ca 1f 02 00    	push   QWORD PTR [rip+0x21fca]        # 25ff0 <_GLOBAL_OFFSET_TABLE_+0x8>
    4026:	ff 25 cc 1f 02 00    	jmp    QWORD PTR [rip+0x21fcc]        # 25ff8 <_GLOBAL_OFFSET_TABLE_+0x10>
    402c:	0f 1f 40 00          	nop    DWORD PTR [rax+0x0]

0000000000004030 <_ZSt8to_charsPcS_f@plt>:
    4030:	ff 25 ca 1f 02 00    	jmp    QWORD PTR [rip+0x21fca]        # 26000 <_ZSt8to_charsPcS_f@GLIBCXX_3.4.29>
    4036:	68 00 00 00 00       	push   0x0
    403b:	e9 e0 ff ff ff       	jmp    4020 <_init+0x20>

0000000000004040 <frexpf@plt>:
    4040:	ff 25 c2 1f 02 00    	jmp    QWORD PTR [rip+0x21fc2]        # 26008 <frexpf@GLIBC_2.2.5>
    4046:	68 01 00 00 00       	push   0x1
    404b:	e9 d0 ff ff ff       	jmp    4020 <_init+0x20>

0000000000004050 <_ZSt8to_charsPcS_eSt12chars_format@plt>:
    4050:	ff 25 ba 1f 02 00    	jmp    QWORD PTR [rip+0x21fba]        # 26010 <_ZSt8to_charsPcS_eSt12chars_format@GLIBCXX_3.4.29>
    4056:	68 02 00 00 00       	push   0x2
    405b:	e9 c0 ff ff ff       	jmp    4020 <_init+0x20>

0000000000004060 <_ZNKSt6localeeqERKS_@plt>:
    4060:	ff 25 b2 1f 02 00    	jmp    QWORD PTR [rip+0x21fb2]        # 26018 <_ZNKSt6localeeqERKS_@GLIBCXX_3.4>
    4066:	68 03 00 00 00       	push   0x3
    406b:	e9 b0 ff ff ff       	jmp    4020 <_init+0x20>

0000000000004070 <_ZSt8to_charsPcS_d@plt>:
    4070:	ff 25 aa 1f 02 00    	jmp    QWORD PTR [rip+0x21faa]        # 26020 <_ZSt8to_charsPcS_d@GLIBCXX_3.4.29>
    4076:	68 04 00 00 00       	push   0x4
    407b:	e9 a0 ff ff ff       	jmp    4020 <_init+0x20>

0000000000004080 <__udivti3@plt>:
    4080:	ff 25 a2 1f 02 00    	jmp    QWORD PTR [rip+0x21fa2]        # 26028 <__udivti3@GCC_3.0>
    4086:	68 05 00 00 00       	push   0x5
    408b:	e9 90 ff ff ff       	jmp    4020 <_init+0x20>

0000000000004090 <_ZSt17__throw_bad_allocv@plt>:
    4090:	ff 25 9a 1f 02 00    	jmp    QWORD PTR [rip+0x21f9a]        # 26030 <_ZSt17__throw_bad_allocv@GLIBCXX_3.4>
    4096:	68 06 00 00 00       	push   0x6
    409b:	e9 80 ff ff ff       	jmp    4020 <_init+0x20>

00000000000040a0 <strlen@plt>:
    40a0:	ff 25 92 1f 02 00    	jmp    QWORD PTR [rip+0x21f92]        # 26038 <strlen@GLIBC_2.2.5>
    40a6:	68 07 00 00 00       	push   0x7
    40ab:	e9 70 ff ff ff       	jmp    4020 <_init+0x20>

00000000000040b0 <_ZSt9use_facetINSt7__cxx118numpunctIcEEERKT_RKSt6locale@plt>:
    40b0:	ff 25 8a 1f 02 00    	jmp    QWORD PTR [rip+0x21f8a]        # 26040 <_ZSt9use_facetINSt7__cxx118numpunctIcEEERKT_RKSt6locale@GLIBCXX_3.4.21>
    40b6:	68 08 00 00 00       	push   0x8
    40bb:	e9 60 ff ff ff       	jmp    4020 <_init+0x20>

00000000000040c0 <memcmp@plt>:
    40c0:	ff 25 82 1f 02 00    	jmp    QWORD PTR [rip+0x21f82]        # 26048 <memcmp@GLIBC_2.2.5>
    40c6:	68 09 00 00 00       	push   0x9
    40cb:	e9 50 ff ff ff       	jmp    4020 <_init+0x20>

00000000000040d0 <__cxa_allocate_exception@plt>:
    40d0:	ff 25 7a 1f 02 00    	jmp    QWORD PTR [rip+0x21f7a]        # 26050 <__cxa_allocate_exception@CXXABI_1.3>
    40d6:	68 0a 00 00 00       	push   0xa
    40db:	e9 40 ff ff ff       	jmp    4020 <_init+0x20>

00000000000040e0 <__gttf2@plt>:
    40e0:	ff 25 72 1f 02 00    	jmp    QWORD PTR [rip+0x21f72]        # 26058 <__gttf2@GCC_4.3.0>
    40e6:	68 0b 00 00 00       	push   0xb
    40eb:	e9 30 ff ff ff       	jmp    4020 <_init+0x20>

00000000000040f0 <_ZSt20__throw_length_errorPKc@plt>:
    40f0:	ff 25 6a 1f 02 00    	jmp    QWORD PTR [rip+0x21f6a]        # 26060 <_ZSt20__throw_length_errorPKc@GLIBCXX_3.4>
    40f6:	68 0c 00 00 00       	push   0xc
    40fb:	e9 20 ff ff ff       	jmp    4020 <_init+0x20>

0000000000004100 <memset@plt>:
    4100:	ff 25 62 1f 02 00    	jmp    QWORD PTR [rip+0x21f62]        # 26068 <memset@GLIBC_2.2.5>
    4106:	68 0d 00 00 00       	push   0xd
    410b:	e9 10 ff ff ff       	jmp    4020 <_init+0x20>

0000000000004110 <_ZNKSt7__cxx118numpunctIcE13decimal_pointEv@plt>:
    4110:	ff 25 5a 1f 02 00    	jmp    QWORD PTR [rip+0x21f5a]        # 26070 <_ZNKSt7__cxx118numpunctIcE13decimal_pointEv@GLIBCXX_3.4.21>
    4116:	68 0e 00 00 00       	push   0xe
    411b:	e9 00 ff ff ff       	jmp    4020 <_init+0x20>

0000000000004120 <_ZSt8to_charsPcS_e@plt>:
    4120:	ff 25 52 1f 02 00    	jmp    QWORD PTR [rip+0x21f52]        # 26078 <_ZSt8to_charsPcS_e@GLIBCXX_3.4.29>
    4126:	68 0f 00 00 00       	push   0xf
    412b:	e9 f0 fe ff ff       	jmp    4020 <_init+0x20>

0000000000004130 <_ZSt8to_charsPcS_dSt12chars_format@plt>:
    4130:	ff 25 4a 1f 02 00    	jmp    QWORD PTR [rip+0x21f4a]        # 26080 <_ZSt8to_charsPcS_dSt12chars_format@GLIBCXX_3.4.29>
    4136:	68 10 00 00 00       	push   0x10
    413b:	e9 e0 fe ff ff       	jmp    4020 <_init+0x20>

0000000000004140 <_ZSt8to_charsPcS_dSt12chars_formati@plt>:
    4140:	ff 25 42 1f 02 00    	jmp    QWORD PTR [rip+0x21f42]        # 26088 <_ZSt8to_charsPcS_dSt12chars_formati@GLIBCXX_3.4.29>
    4146:	68 11 00 00 00       	push   0x11
    414b:	e9 d0 fe ff ff       	jmp    4020 <_init+0x20>

0000000000004150 <_ZNKSt7__cxx118numpunctIcE13thousands_sepEv@plt>:
    4150:	ff 25 3a 1f 02 00    	jmp    QWORD PTR [rip+0x21f3a]        # 26090 <_ZNKSt7__cxx118numpunctIcE13thousands_sepEv@GLIBCXX_3.4.21>
    4156:	68 12 00 00 00       	push   0x12
    415b:	e9 c0 fe ff ff       	jmp    4020 <_init+0x20>

0000000000004160 <_ZNSt6localeC1ERKS_@plt>:
    4160:	ff 25 32 1f 02 00    	jmp    QWORD PTR [rip+0x21f32]        # 26098 <_ZNSt6localeC1ERKS_@GLIBCXX_3.4>
    4166:	68 13 00 00 00       	push   0x13
    416b:	e9 b0 fe ff ff       	jmp    4020 <_init+0x20>

0000000000004170 <_ZSt20__throw_system_errori@plt>:
    4170:	ff 25 2a 1f 02 00    	jmp    QWORD PTR [rip+0x21f2a]        # 260a0 <_ZSt20__throw_system_errori@GLIBCXX_3.4.11>
    4176:	68 14 00 00 00       	push   0x14
    417b:	e9 a0 fe ff ff       	jmp    4020 <_init+0x20>

0000000000004180 <__cxa_free_exception@plt>:
    4180:	ff 25 22 1f 02 00    	jmp    QWORD PTR [rip+0x21f22]        # 260a8 <__cxa_free_exception@CXXABI_1.3>
    4186:	68 15 00 00 00       	push   0x15
    418b:	e9 90 fe ff ff       	jmp    4020 <_init+0x20>

0000000000004190 <_ZSt8to_charsPcS_DF128_St12chars_format@plt>:
    4190:	ff 25 1a 1f 02 00    	jmp    QWORD PTR [rip+0x21f1a]        # 260b0 <_ZSt8to_charsPcS_DF128_St12chars_format@GLIBCXX_3.4.31>
    4196:	68 16 00 00 00       	push   0x16
    419b:	e9 80 fe ff ff       	jmp    4020 <_init+0x20>

00000000000041a0 <_ZNKSt7__cxx118numpunctIcE9falsenameEv@plt>:
    41a0:	ff 25 12 1f 02 00    	jmp    QWORD PTR [rip+0x21f12]        # 260b8 <_ZNKSt7__cxx118numpunctIcE9falsenameEv@GLIBCXX_3.4.21>
    41a6:	68 17 00 00 00       	push   0x17
    41ab:	e9 70 fe ff ff       	jmp    4020 <_init+0x20>

00000000000041b0 <_ZSt28__throw_bad_array_new_lengthv@plt>:
    41b0:	ff 25 0a 1f 02 00    	jmp    QWORD PTR [rip+0x21f0a]        # 260c0 <_ZSt28__throw_bad_array_new_lengthv@GLIBCXX_3.4.29>
    41b6:	68 18 00 00 00       	push   0x18
    41bb:	e9 60 fe ff ff       	jmp    4020 <_init+0x20>

00000000000041c0 <memcpy@plt>:
    41c0:	ff 25 02 1f 02 00    	jmp    QWORD PTR [rip+0x21f02]        # 260c8 <memcpy@GLIBC_2.14>
    41c6:	68 19 00 00 00       	push   0x19
    41cb:	e9 50 fe ff ff       	jmp    4020 <_init+0x20>

00000000000041d0 <_ZSt8to_charsPcS_DF128_St12chars_formati@plt>:
    41d0:	ff 25 fa 1e 02 00    	jmp    QWORD PTR [rip+0x21efa]        # 260d0 <_ZSt8to_charsPcS_DF128_St12chars_formati@GLIBCXX_3.4.31>
    41d6:	68 1a 00 00 00       	push   0x1a
    41db:	e9 40 fe ff ff       	jmp    4020 <_init+0x20>

00000000000041e0 <_ZNKSt7__cxx118numpunctIcE8truenameEv@plt>:
    41e0:	ff 25 f2 1e 02 00    	jmp    QWORD PTR [rip+0x21ef2]        # 260d8 <_ZNKSt7__cxx118numpunctIcE8truenameEv@GLIBCXX_3.4.21>
    41e6:	68 1b 00 00 00       	push   0x1b
    41eb:	e9 30 fe ff ff       	jmp    4020 <_init+0x20>

00000000000041f0 <_ZdlPv@plt>:
    41f0:	ff 25 ea 1e 02 00    	jmp    QWORD PTR [rip+0x21eea]        # 260e0 <_ZdlPv@GLIBCXX_3.4>
    41f6:	68 1c 00 00 00       	push   0x1c
    41fb:	e9 20 fe ff ff       	jmp    4020 <_init+0x20>

0000000000004200 <_Znwm@plt>:
    4200:	ff 25 e2 1e 02 00    	jmp    QWORD PTR [rip+0x21ee2]        # 260e8 <_Znwm@GLIBCXX_3.4>
    4206:	68 1d 00 00 00       	push   0x1d
    420b:	e9 10 fe ff ff       	jmp    4020 <_init+0x20>

0000000000004210 <_ZSt8to_charsPcS_fSt12chars_format@plt>:
    4210:	ff 25 da 1e 02 00    	jmp    QWORD PTR [rip+0x21eda]        # 260f0 <_ZSt8to_charsPcS_fSt12chars_format@GLIBCXX_3.4.29>
    4216:	68 1e 00 00 00       	push   0x1e
    421b:	e9 00 fe ff ff       	jmp    4020 <_init+0x20>

0000000000004220 <_ZdlPvm@plt>:
    4220:	ff 25 d2 1e 02 00    	jmp    QWORD PTR [rip+0x21ed2]        # 260f8 <_ZdlPvm@CXXABI_1.3.9>
    4226:	68 1f 00 00 00       	push   0x1f
    422b:	e9 f0 fd ff ff       	jmp    4020 <_init+0x20>

0000000000004230 <_ZSt8to_charsPcS_eSt12chars_formati@plt>:
    4230:	ff 25 ca 1e 02 00    	jmp    QWORD PTR [rip+0x21eca]        # 26100 <_ZSt8to_charsPcS_eSt12chars_formati@GLIBCXX_3.4.29>
    4236:	68 20 00 00 00       	push   0x20
    423b:	e9 e0 fd ff ff       	jmp    4020 <_init+0x20>

0000000000004240 <_ZNSt13runtime_errorD2Ev@plt>:
    4240:	ff 25 c2 1e 02 00    	jmp    QWORD PTR [rip+0x21ec2]        # 26108 <_ZNSt13runtime_errorD2Ev@GLIBCXX_3.4>
    4246:	68 21 00 00 00       	push   0x21
    424b:	e9 d0 fd ff ff       	jmp    4020 <_init+0x20>

0000000000004250 <memchr@plt>:
    4250:	ff 25 ba 1e 02 00    	jmp    QWORD PTR [rip+0x21eba]        # 26110 <memchr@GLIBC_2.2.5>
    4256:	68 22 00 00 00       	push   0x22
    425b:	e9 c0 fd ff ff       	jmp    4020 <_init+0x20>

0000000000004260 <__stack_chk_fail@plt>:
    4260:	ff 25 b2 1e 02 00    	jmp    QWORD PTR [rip+0x21eb2]        # 26118 <__stack_chk_fail@GLIBC_2.4>
    4266:	68 23 00 00 00       	push   0x23
    426b:	e9 b0 fd ff ff       	jmp    4020 <_init+0x20>

0000000000004270 <_ZSt8to_charsPcS_fSt12chars_formati@plt>:
    4270:	ff 25 aa 1e 02 00    	jmp    QWORD PTR [rip+0x21eaa]        # 26120 <_ZSt8to_charsPcS_fSt12chars_formati@GLIBCXX_3.4.29>
    4276:	68 24 00 00 00       	push   0x24
    427b:	e9 a0 fd ff ff       	jmp    4020 <_init+0x20>

0000000000004280 <_ZNKSt7__cxx118numpunctIcE8groupingEv@plt>:
    4280:	ff 25 a2 1e 02 00    	jmp    QWORD PTR [rip+0x21ea2]        # 26128 <_ZNKSt7__cxx118numpunctIcE8groupingEv@GLIBCXX_3.4.21>
    4286:	68 25 00 00 00       	push   0x25
    428b:	e9 90 fd ff ff       	jmp    4020 <_init+0x20>

0000000000004290 <_ZNSt6locale7classicEv@plt>:
    4290:	ff 25 9a 1e 02 00    	jmp    QWORD PTR [rip+0x21e9a]        # 26130 <_ZNSt6locale7classicEv@GLIBCXX_3.4>
    4296:	68 26 00 00 00       	push   0x26
    429b:	e9 80 fd ff ff       	jmp    4020 <_init+0x20>

00000000000042a0 <_ZNSt7__cxx1112basic_stringIcSt11char_traitsIcESaIcEE15_M_replace_coldEPcmPKcmm@plt>:
    42a0:	ff 25 92 1e 02 00    	jmp    QWORD PTR [rip+0x21e92]        # 26138 <_ZNSt7__cxx1112basic_stringIcSt11char_traitsIcESaIcEE15_M_replace_coldEPcmPKcmm@GLIBCXX_3.4.31>
    42a6:	68 27 00 00 00       	push   0x27
    42ab:	e9 70 fd ff ff       	jmp    4020 <_init+0x20>

00000000000042b0 <_ZNSt6localeD1Ev@plt>:
    42b0:	ff 25 8a 1e 02 00    	jmp    QWORD PTR [rip+0x21e8a]        # 26140 <_ZNSt6localeD1Ev@GLIBCXX_3.4>
    42b6:	68 28 00 00 00       	push   0x28
    42bb:	e9 60 fd ff ff       	jmp    4020 <_init+0x20>

00000000000042c0 <__unordtf2@plt>:
    42c0:	ff 25 82 1e 02 00    	jmp    QWORD PTR [rip+0x21e82]        # 26148 <__unordtf2@GCC_4.3.0>
    42c6:	68 29 00 00 00       	push   0x29
    42cb:	e9 50 fd ff ff       	jmp    4020 <_init+0x20>

00000000000042d0 <_ZSt24__throw_out_of_range_fmtPKcz@plt>:
    42d0:	ff 25 7a 1e 02 00    	jmp    QWORD PTR [rip+0x21e7a]        # 26150 <_ZSt24__throw_out_of_range_fmtPKcz@GLIBCXX_3.4.20>
    42d6:	68 2a 00 00 00       	push   0x2a
    42db:	e9 40 fd ff ff       	jmp    4020 <_init+0x20>

00000000000042e0 <frexpl@plt>:
    42e0:	ff 25 72 1e 02 00    	jmp    QWORD PTR [rip+0x21e72]        # 26158 <frexpl@GLIBC_2.2.5>
    42e6:	68 2b 00 00 00       	push   0x2b
    42eb:	e9 30 fd ff ff       	jmp    4020 <_init+0x20>

00000000000042f0 <__umodti3@plt>:
    42f0:	ff 25 6a 1e 02 00    	jmp    QWORD PTR [rip+0x21e6a]        # 26160 <__umodti3@GCC_3.0>
    42f6:	68 2c 00 00 00       	push   0x2c
    42fb:	e9 20 fd ff ff       	jmp    4020 <_init+0x20>

0000000000004300 <_ZNKSt6locale4nameB5cxx11Ev@plt>:
    4300:	ff 25 62 1e 02 00    	jmp    QWORD PTR [rip+0x21e62]        # 26168 <_ZNKSt6locale4nameB5cxx11Ev@GLIBCXX_3.4.21>
    4306:	68 2d 00 00 00       	push   0x2d
    430b:	e9 10 fd ff ff       	jmp    4020 <_init+0x20>

0000000000004310 <memmove@plt>:
    4310:	ff 25 5a 1e 02 00    	jmp    QWORD PTR [rip+0x21e5a]        # 26170 <memmove@GLIBC_2.2.5>
    4316:	68 2e 00 00 00       	push   0x2e
    431b:	e9 00 fd ff ff       	jmp    4020 <_init+0x20>

0000000000004320 <_ZSt8to_charsPcS_DF128_@plt>:
    4320:	ff 25 52 1e 02 00    	jmp    QWORD PTR [rip+0x21e52]        # 26178 <_ZSt8to_charsPcS_DF128_@GLIBCXX_3.4.31>
    4326:	68 2f 00 00 00       	push   0x2f
    432b:	e9 f0 fc ff ff       	jmp    4020 <_init+0x20>

0000000000004330 <__cxa_throw@plt>:
    4330:	ff 25 4a 1e 02 00    	jmp    QWORD PTR [rip+0x21e4a]        # 26180 <__cxa_throw@CXXABI_1.3>
    4336:	68 30 00 00 00       	push   0x30
    433b:	e9 e0 fc ff ff       	jmp    4020 <_init+0x20>

0000000000004340 <_Unwind_Resume@plt>:
    4340:	ff 25 42 1e 02 00    	jmp    QWORD PTR [rip+0x21e42]        # 26188 <_Unwind_Resume@GCC_3.0>
    4346:	68 31 00 00 00       	push   0x31
    434b:	e9 d0 fc ff ff       	jmp    4020 <_init+0x20>

0000000000004350 <toupper@plt>:
    4350:	ff 25 3a 1e 02 00    	jmp    QWORD PTR [rip+0x21e3a]        # 26190 <toupper@GLIBC_2.2.5>
    4356:	68 32 00 00 00       	push   0x32
    435b:	e9 c0 fc ff ff       	jmp    4020 <_init+0x20>

0000000000004360 <frexp@plt>:
    4360:	ff 25 32 1e 02 00    	jmp    QWORD PTR [rip+0x21e32]        # 26198 <frexp@GLIBC_2.2.5>
    4366:	68 33 00 00 00       	push   0x33
    436b:	e9 b0 fc ff ff       	jmp    4020 <_init+0x20>

0000000000004370 <_ZNSt13runtime_errorC2EPKc@plt>:
    4370:	ff 25 2a 1e 02 00    	jmp    QWORD PTR [rip+0x21e2a]        # 261a0 <_ZNSt13runtime_errorC2EPKc@GLIBCXX_3.4.21>
    4376:	68 34 00 00 00       	push   0x34
    437b:	e9 a0 fc ff ff       	jmp    4020 <_init+0x20>

0000000000004380 <fwrite@plt>:
    4380:	ff 25 22 1e 02 00    	jmp    QWORD PTR [rip+0x21e22]        # 261a8 <fwrite@GLIBC_2.2.5>
    4386:	68 35 00 00 00       	push   0x35
    438b:	e9 90 fc ff ff       	jmp    4020 <_init+0x20>

0000000000004390 <_ZNSt6localeC1Ev@plt>:
    4390:	ff 25 1a 1e 02 00    	jmp    QWORD PTR [rip+0x21e1a]        # 261b0 <_ZNSt6localeC1Ev@GLIBCXX_3.4>
    4396:	68 36 00 00 00       	push   0x36
    439b:	e9 80 fc ff ff       	jmp    4020 <_init+0x20>

Disassembly of section .text:

00000000000043a0 <_start>:
    43a0:	f3 0f 1e fa          	endbr64
    43a4:	31 ed                	xor    ebp,ebp
    43a6:	49 89 d1             	mov    r9,rdx
    43a9:	5e                   	pop    rsi
    43aa:	48 89 e2             	mov    rdx,rsp
    43ad:	48 83 e4 f0          	and    rsp,0xfffffffffffffff0
    43b1:	50                   	push   rax
    43b2:	54                   	push   rsp
    43b3:	45 31 c0             	xor    r8d,r8d
    43b6:	31 c9                	xor    ecx,ecx
    43b8:	48 8d 3d da 00 00 00 	lea    rdi,[rip+0xda]        # 4499 <main>
    43bf:	ff 15 03 1c 02 00    	call   QWORD PTR [rip+0x21c03]        # 25fc8 <__libc_start_main@GLIBC_2.34>
    43c5:	f4                   	hlt
    43c6:	66 2e 0f 1f 84 00 00 	cs nop WORD PTR [rax+rax*1+0x0]
    43cd:	00 00 00 
    43d0:	48 8d 3d f9 1d 02 00 	lea    rdi,[rip+0x21df9]        # 261d0 <stdout@GLIBC_2.2.5>
    43d7:	48 8d 05 f2 1d 02 00 	lea    rax,[rip+0x21df2]        # 261d0 <stdout@GLIBC_2.2.5>
    43de:	48 39 f8             	cmp    rax,rdi
    43e1:	74 15                	je     43f8 <_start+0x58>
    43e3:	48 8b 05 e6 1b 02 00 	mov    rax,QWORD PTR [rip+0x21be6]        # 25fd0 <_ITM_deregisterTMCloneTable@Base>
    43ea:	48 85 c0             	test   rax,rax
    43ed:	74 09                	je     43f8 <_start+0x58>
    43ef:	ff e0                	jmp    rax
    43f1:	0f 1f 80 00 00 00 00 	nop    DWORD PTR [rax+0x0]
    43f8:	c3                   	ret
    43f9:	0f 1f 80 00 00 00 00 	nop    DWORD PTR [rax+0x0]
    4400:	48 8d 3d c9 1d 02 00 	lea    rdi,[rip+0x21dc9]        # 261d0 <stdout@GLIBC_2.2.5>
    4407:	48 8d 35 c2 1d 02 00 	lea    rsi,[rip+0x21dc2]        # 261d0 <stdout@GLIBC_2.2.5>
    440e:	48 29 fe             	sub    rsi,rdi
    4411:	48 89 f0             	mov    rax,rsi
    4414:	48 c1 ee 3f          	shr    rsi,0x3f
    4418:	48 c1 f8 03          	sar    rax,0x3
    441c:	48 01 c6             	add    rsi,rax
    441f:	48 d1 fe             	sar    rsi,1
    4422:	74 14                	je     4438 <_start+0x98>
    4424:	48 8b 05 b5 1b 02 00 	mov    rax,QWORD PTR [rip+0x21bb5]        # 25fe0 <_ITM_registerTMCloneTable@Base>
    442b:	48 85 c0             	test   rax,rax
    442e:	74 08                	je     4438 <_start+0x98>
    4430:	ff e0                	jmp    rax
    4432:	66 0f 1f 44 00 00    	nop    WORD PTR [rax+rax*1+0x0]
    4438:	c3                   	ret
    4439:	0f 1f 80 00 00 00 00 	nop    DWORD PTR [rax+0x0]
    4440:	f3 0f 1e fa          	endbr64
    4444:	80 3d 8d 1d 02 00 00 	cmp    BYTE PTR [rip+0x21d8d],0x0        # 261d8 <stdout@GLIBC_2.2.5+0x8>
    444b:	75 33                	jne    4480 <_start+0xe0>
    444d:	55                   	push   rbp
    444e:	48 83 3d 6a 1b 02 00 	cmp    QWORD PTR [rip+0x21b6a],0x0        # 25fc0 <__cxa_finalize@GLIBC_2.2.5>
    4455:	00 
    4456:	48 89 e5             	mov    rbp,rsp
    4459:	74 0d                	je     4468 <_start+0xc8>
    445b:	48 8b 3d 5e 1d 02 00 	mov    rdi,QWORD PTR [rip+0x21d5e]        # 261c0 <__dso_handle>
    4462:	ff 15 58 1b 02 00    	call   QWORD PTR [rip+0x21b58]        # 25fc0 <__cxa_finalize@GLIBC_2.2.5>
    4468:	e8 63 ff ff ff       	call   43d0 <_start+0x30>
    446d:	c6 05 64 1d 02 00 01 	mov    BYTE PTR [rip+0x21d64],0x1        # 261d8 <stdout@GLIBC_2.2.5+0x8>
    4474:	5d                   	pop    rbp
    4475:	c3                   	ret
    4476:	66 2e 0f 1f 84 00 00 	cs nop WORD PTR [rax+rax*1+0x0]
    447d:	00 00 00 
    4480:	c3                   	ret
    4481:	66 66 2e 0f 1f 84 00 	data16 cs nop WORD PTR [rax+rax*1+0x0]
    4488:	00 00 00 00 
    448c:	0f 1f 40 00          	nop    DWORD PTR [rax+0x0]
    4490:	f3 0f 1e fa          	endbr64
    4494:	e9 67 ff ff ff       	jmp    4400 <_start+0x60>

0000000000004499 <main>:
    4499:	55                   	push   rbp
    449a:	48 89 e5             	mov    rbp,rsp
    449d:	e8 8c 1b 00 00       	call   602e <_Z4funcv>
    44a2:	b8 00 00 00 00       	mov    eax,0x0
    44a7:	5d                   	pop    rbp
    44a8:	c3                   	ret

00000000000044a9 <_ZSt21is_constant_evaluatedv>:
    44a9:	55                   	push   rbp
    44aa:	48 89 e5             	mov    rbp,rsp
    44ad:	b8 00 00 00 00       	mov    eax,0x0
    44b2:	5d                   	pop    rbp
    44b3:	c3                   	ret

00000000000044b4 <_ZSteqSt15strong_orderingNSt9__cmp_cat8__unspecE>:
    44b4:	55                   	push   rbp
    44b5:	48 89 e5             	mov    rbp,rsp
    44b8:	40 88 7d ff          	mov    BYTE PTR [rbp-0x1],dil
    44bc:	0f b6 45 ff          	movzx  eax,BYTE PTR [rbp-0x1]
    44c0:	84 c0                	test   al,al
    44c2:	0f 94 c0             	sete   al
    44c5:	5d                   	pop    rbp
    44c6:	c3                   	ret

00000000000044c7 <_ZStltSt15strong_orderingNSt9__cmp_cat8__unspecE>:
    44c7:	55                   	push   rbp
    44c8:	48 89 e5             	mov    rbp,rsp
    44cb:	40 88 7d ff          	mov    BYTE PTR [rbp-0x1],dil
    44cf:	0f b6 45 ff          	movzx  eax,BYTE PTR [rbp-0x1]
    44d3:	c0 e8 07             	shr    al,0x7
    44d6:	5d                   	pop    rbp
    44d7:	c3                   	ret

00000000000044d8 <_ZnwmPv>:
    44d8:	55                   	push   rbp
    44d9:	48 89 e5             	mov    rbp,rsp
    44dc:	48 89 7d f8          	mov    QWORD PTR [rbp-0x8],rdi
    44e0:	48 89 75 f0          	mov    QWORD PTR [rbp-0x10],rsi
    44e4:	48 8b 45 f0          	mov    rax,QWORD PTR [rbp-0x10]
    44e8:	5d                   	pop    rbp
    44e9:	c3                   	ret

00000000000044ea <_ZN9__gnu_cxx5__ops15__iter_less_valEv>:
    44ea:	55                   	push   rbp
    44eb:	48 89 e5             	mov    rbp,rsp
    44ee:	90                   	nop
    44ef:	5d                   	pop    rbp
    44f0:	c3                   	ret

00000000000044f1 <_ZN9__gnu_cxx5__ops15__val_less_iterEv>:
    44f1:	55                   	push   rbp
    44f2:	48 89 e5             	mov    rbp,rsp
    44f5:	90                   	nop
    44f6:	5d                   	pop    rbp
    44f7:	c3                   	ret

00000000000044f8 <_ZSt8to_charsPcS_mi>:
    44f8:	55                   	push   rbp
    44f9:	48 89 e5             	mov    rbp,rsp
    44fc:	48 83 ec 20          	sub    rsp,0x20
    4500:	48 89 7d f8          	mov    QWORD PTR [rbp-0x8],rdi
    4504:	48 89 75 f0          	mov    QWORD PTR [rbp-0x10],rsi
    4508:	48 89 55 e8          	mov    QWORD PTR [rbp-0x18],rdx
    450c:	89 4d e4             	mov    DWORD PTR [rbp-0x1c],ecx
    450f:	8b 4d e4             	mov    ecx,DWORD PTR [rbp-0x1c]
    4512:	48 8b 55 e8          	mov    rdx,QWORD PTR [rbp-0x18]
    4516:	48 8b 75 f0          	mov    rsi,QWORD PTR [rbp-0x10]
    451a:	48 8b 45 f8          	mov    rax,QWORD PTR [rbp-0x8]
    451e:	48 89 c7             	mov    rdi,rax
    4521:	e8 27 1e 00 00       	call   634d <_ZSt12__to_chars_iImESt15to_chars_resultPcS1_T_i>
    4526:	c9                   	leave
    4527:	c3                   	ret

0000000000004528 <_ZSt11__bit_widthIjEiT_>:
    4528:	55                   	push   rbp
    4529:	48 89 e5             	mov    rbp,rsp
    452c:	48 83 ec 20          	sub    rsp,0x20
    4530:	89 7d ec             	mov    DWORD PTR [rbp-0x14],edi
    4533:	c7 45 fc 20 00 00 00 	mov    DWORD PTR [rbp-0x4],0x20
    453a:	8b 45 ec             	mov    eax,DWORD PTR [rbp-0x14]
    453d:	89 c7                	mov    edi,eax
    453f:	e8 0f 21 00 00       	call   6653 <_ZSt13__countl_zeroIjEiT_>
    4544:	ba 20 00 00 00       	mov    edx,0x20
    4549:	29 c2                	sub    edx,eax
    454b:	89 d0                	mov    eax,edx
    454d:	c9                   	leave
    454e:	c3                   	ret

000000000000454f <_ZNSt11char_traitsIcE6assignERcRKc>:
    454f:	55                   	push   rbp
    4550:	48 89 e5             	mov    rbp,rsp
    4553:	48 83 ec 10          	sub    rsp,0x10
    4557:	48 89 7d f8          	mov    QWORD PTR [rbp-0x8],rdi
    455b:	48 89 75 f0          	mov    QWORD PTR [rbp-0x10],rsi
    455f:	b8 00 00 00 00       	mov    eax,0x0
    4564:	84 c0                	test   al,al
    4566:	74 15                	je     457d <_ZNSt11char_traitsIcE6assignERcRKc+0x2e>
    4568:	48 8b 55 f0          	mov    rdx,QWORD PTR [rbp-0x10]
    456c:	48 8b 45 f8          	mov    rax,QWORD PTR [rbp-0x8]
    4570:	48 89 d6             	mov    rsi,rdx
    4573:	48 89 c7             	mov    rdi,rax
    4576:	e8 19 21 00 00       	call   6694 <_ZSt12construct_atIcJRKcEEDTgsnwcvPvLi0E_T_pispcl7declvalIT0_EEEEPS3_DpOS4_>
    457b:	eb 0d                	jmp    458a <_ZNSt11char_traitsIcE6assignERcRKc+0x3b>
    457d:	48 8b 45 f0          	mov    rax,QWORD PTR [rbp-0x10]
    4581:	0f b6 10             	movzx  edx,BYTE PTR [rax]
    4584:	48 8b 45 f8          	mov    rax,QWORD PTR [rbp-0x8]
    4588:	88 10                	mov    BYTE PTR [rax],dl
    458a:	90                   	nop
    458b:	c9                   	leave
    458c:	c3                   	ret

000000000000458d <_ZNSt11char_traitsIcE2eqERKcS2_>:
    458d:	55                   	push   rbp
    458e:	48 89 e5             	mov    rbp,rsp
    4591:	48 89 7d f8          	mov    QWORD PTR [rbp-0x8],rdi
    4595:	48 89 75 f0          	mov    QWORD PTR [rbp-0x10],rsi
    4599:	48 8b 45 f8          	mov    rax,QWORD PTR [rbp-0x8]
    459d:	0f b6 10             	movzx  edx,BYTE PTR [rax]
    45a0:	48 8b 45 f0          	mov    rax,QWORD PTR [rbp-0x10]
    45a4:	0f b6 00             	movzx  eax,BYTE PTR [rax]
    45a7:	38 c2                	cmp    dl,al
    45a9:	0f 94 c0             	sete   al
    45ac:	5d                   	pop    rbp
    45ad:	c3                   	ret

00000000000045ae <_ZNSt11char_traitsIcE2ltERKcS2_>:
    45ae:	55                   	push   rbp
    45af:	48 89 e5             	mov    rbp,rsp
    45b2:	48 89 7d f8          	mov    QWORD PTR [rbp-0x8],rdi
    45b6:	48 89 75 f0          	mov    QWORD PTR [rbp-0x10],rsi
    45ba:	48 8b 45 f8          	mov    rax,QWORD PTR [rbp-0x8]
    45be:	0f b6 00             	movzx  eax,BYTE PTR [rax]
    45c1:	89 c2                	mov    edx,eax
    45c3:	48 8b 45 f0          	mov    rax,QWORD PTR [rbp-0x10]
    45c7:	0f b6 00             	movzx  eax,BYTE PTR [rax]
    45ca:	38 c2                	cmp    dl,al
    45cc:	0f 92 c0             	setb   al
    45cf:	5d                   	pop    rbp
    45d0:	c3                   	ret

00000000000045d1 <_ZNSt11char_traitsIcE7compareEPKcS2_m>:
    45d1:	55                   	push   rbp
    45d2:	48 89 e5             	mov    rbp,rsp
    45d5:	48 83 ec 30          	sub    rsp,0x30
    45d9:	48 89 7d e8          	mov    QWORD PTR [rbp-0x18],rdi
    45dd:	48 89 75 e0          	mov    QWORD PTR [rbp-0x20],rsi
    45e1:	48 89 55 d8          	mov    QWORD PTR [rbp-0x28],rdx
    45e5:	48 83 7d d8 00       	cmp    QWORD PTR [rbp-0x28],0x0
    45ea:	75 0a                	jne    45f6 <_ZNSt11char_traitsIcE7compareEPKcS2_m+0x25>
    45ec:	b8 00 00 00 00       	mov    eax,0x0
    45f1:	e9 99 00 00 00       	jmp    468f <_ZNSt11char_traitsIcE7compareEPKcS2_m+0xbe>
    45f6:	b8 00 00 00 00       	mov    eax,0x0
    45fb:	84 c0                	test   al,al
    45fd:	74 78                	je     4677 <_ZNSt11char_traitsIcE7compareEPKcS2_m+0xa6>
    45ff:	48 c7 45 f8 00 00 00 	mov    QWORD PTR [rbp-0x8],0x0
    4606:	00 
    4607:	eb 5d                	jmp    4666 <_ZNSt11char_traitsIcE7compareEPKcS2_m+0x95>
    4609:	48 8b 55 e0          	mov    rdx,QWORD PTR [rbp-0x20]
    460d:	48 8b 45 f8          	mov    rax,QWORD PTR [rbp-0x8]
    4611:	48 01 c2             	add    rdx,rax
    4614:	48 8b 4d e8          	mov    rcx,QWORD PTR [rbp-0x18]
    4618:	48 8b 45 f8          	mov    rax,QWORD PTR [rbp-0x8]
    461c:	48 01 c8             	add    rax,rcx
    461f:	48 89 d6             	mov    rsi,rdx
    4622:	48 89 c7             	mov    rdi,rax
    4625:	e8 84 ff ff ff       	call   45ae <_ZNSt11char_traitsIcE2ltERKcS2_>
    462a:	84 c0                	test   al,al
    462c:	74 07                	je     4635 <_ZNSt11char_traitsIcE7compareEPKcS2_m+0x64>
    462e:	b8 ff ff ff ff       	mov    eax,0xffffffff
    4633:	eb 5a                	jmp    468f <_ZNSt11char_traitsIcE7compareEPKcS2_m+0xbe>
    4635:	48 8b 55 e8          	mov    rdx,QWORD PTR [rbp-0x18]
    4639:	48 8b 45 f8          	mov    rax,QWORD PTR [rbp-0x8]
    463d:	48 01 c2             	add    rdx,rax
    4640:	48 8b 4d e0          	mov    rcx,QWORD PTR [rbp-0x20]
    4644:	48 8b 45 f8          	mov    rax,QWORD PTR [rbp-0x8]
    4648:	48 01 c8             	add    rax,rcx
    464b:	48 89 d6             	mov    rsi,rdx
    464e:	48 89 c7             	mov    rdi,rax
    4651:	e8 58 ff ff ff       	call   45ae <_ZNSt11char_traitsIcE2ltERKcS2_>
    4656:	84 c0                	test   al,al
    4658:	74 07                	je     4661 <_ZNSt11char_traitsIcE7compareEPKcS2_m+0x90>
    465a:	b8 01 00 00 00       	mov    eax,0x1
    465f:	eb 2e                	jmp    468f <_ZNSt11char_traitsIcE7compareEPKcS2_m+0xbe>
    4661:	48 83 45 f8 01       	add    QWORD PTR [rbp-0x8],0x1
    4666:	48 8b 45 f8          	mov    rax,QWORD PTR [rbp-0x8]
    466a:	48 3b 45 d8          	cmp    rax,QWORD PTR [rbp-0x28]
    466e:	72 99                	jb     4609 <_ZNSt11char_traitsIcE7compareEPKcS2_m+0x38>
    4670:	b8 00 00 00 00       	mov    eax,0x0
    4675:	eb 18                	jmp    468f <_ZNSt11char_traitsIcE7compareEPKcS2_m+0xbe>
    4677:	48 8b 55 d8          	mov    rdx,QWORD PTR [rbp-0x28]
    467b:	48 8b 4d e0          	mov    rcx,QWORD PTR [rbp-0x20]
    467f:	48 8b 45 e8          	mov    rax,QWORD PTR [rbp-0x18]
    4683:	48 89 ce             	mov    rsi,rcx
    4686:	48 89 c7             	mov    rdi,rax
    4689:	e8 32 fa ff ff       	call   40c0 <memcmp@plt>
    468e:	90                   	nop
    468f:	c9                   	leave
    4690:	c3                   	ret

0000000000004691 <_ZNSt11char_traitsIcE6lengthEPKc>:
    4691:	55                   	push   rbp
    4692:	48 89 e5             	mov    rbp,rsp
    4695:	48 83 ec 10          	sub    rsp,0x10
    4699:	48 89 7d f8          	mov    QWORD PTR [rbp-0x8],rdi
    469d:	b8 00 00 00 00       	mov    eax,0x0
    46a2:	84 c0                	test   al,al
    46a4:	74 0e                	je     46b4 <_ZNSt11char_traitsIcE6lengthEPKc+0x23>
    46a6:	48 8b 45 f8          	mov    rax,QWORD PTR [rbp-0x8]
    46aa:	48 89 c7             	mov    rdi,rax
    46ad:	e8 2a 11 00 00       	call   57dc <_ZN9__gnu_cxx11char_traitsIcE6lengthEPKc>
    46b2:	eb 0d                	jmp    46c1 <_ZNSt11char_traitsIcE6lengthEPKc+0x30>
    46b4:	48 8b 45 f8          	mov    rax,QWORD PTR [rbp-0x8]
    46b8:	48 89 c7             	mov    rdi,rax
    46bb:	e8 e0 f9 ff ff       	call   40a0 <strlen@plt>
    46c0:	90                   	nop
    46c1:	c9                   	leave
    46c2:	c3                   	ret

00000000000046c3 <_ZNSt11char_traitsIcE4findEPKcmRS1_>:
    46c3:	55                   	push   rbp
    46c4:	48 89 e5             	mov    rbp,rsp
    46c7:	48 83 ec 20          	sub    rsp,0x20
    46cb:	48 89 7d f8          	mov    QWORD PTR [rbp-0x8],rdi
    46cf:	48 89 75 f0          	mov    QWORD PTR [rbp-0x10],rsi
    46d3:	48 89 55 e8          	mov    QWORD PTR [rbp-0x18],rdx
    46d7:	48 83 7d f0 00       	cmp    QWORD PTR [rbp-0x10],0x0
    46dc:	75 07                	jne    46e5 <_ZNSt11char_traitsIcE4findEPKcmRS1_+0x22>
    46de:	b8 00 00 00 00       	mov    eax,0x0
    46e3:	eb 3f                	jmp    4724 <_ZNSt11char_traitsIcE4findEPKcmRS1_+0x61>
    46e5:	b8 00 00 00 00       	mov    eax,0x0
    46ea:	84 c0                	test   al,al
    46ec:	74 19                	je     4707 <_ZNSt11char_traitsIcE4findEPKcmRS1_+0x44>
    46ee:	48 8b 55 e8          	mov    rdx,QWORD PTR [rbp-0x18]
    46f2:	48 8b 4d f0          	mov    rcx,QWORD PTR [rbp-0x10]
    46f6:	48 8b 45 f8          	mov    rax,QWORD PTR [rbp-0x8]
    46fa:	48 89 ce             	mov    rsi,rcx
    46fd:	48 89 c7             	mov    rdi,rax
    4700:	e8 9f 18 00 00       	call   5fa4 <_ZN9__gnu_cxx11char_traitsIcE4findEPKcmRS2_>
    4705:	eb 1d                	jmp    4724 <_ZNSt11char_traitsIcE4findEPKcmRS1_+0x61>
    4707:	48 8b 45 e8          	mov    rax,QWORD PTR [rbp-0x18]
    470b:	0f b6 00             	movzx  eax,BYTE PTR [rax]
    470e:	0f be c8             	movsx  ecx,al
    4711:	48 8b 55 f0          	mov    rdx,QWORD PTR [rbp-0x10]
    4715:	48 8b 45 f8          	mov    rax,QWORD PTR [rbp-0x8]
    4719:	89 ce                	mov    esi,ecx
    471b:	48 89 c7             	mov    rdi,rax
    471e:	e8 2d fb ff ff       	call   4250 <memchr@plt>
    4723:	90                   	nop
    4724:	c9                   	leave
    4725:	c3                   	ret

0000000000004726 <_ZNSt11char_traitsIcE4moveEPcPKcm>:
    4726:	55                   	push   rbp
    4727:	48 89 e5             	mov    rbp,rsp
    472a:	48 83 ec 20          	sub    rsp,0x20
    472e:	48 89 7d f8          	mov    QWORD PTR [rbp-0x8],rdi
    4732:	48 89 75 f0          	mov    QWORD PTR [rbp-0x10],rsi
    4736:	48 89 55 e8          	mov    QWORD PTR [rbp-0x18],rdx
    473a:	48 83 7d e8 00       	cmp    QWORD PTR [rbp-0x18],0x0
    473f:	75 06                	jne    4747 <_ZNSt11char_traitsIcE4moveEPcPKcm+0x21>
    4741:	48 8b 45 f8          	mov    rax,QWORD PTR [rbp-0x8]
    4745:	eb 3a                	jmp    4781 <_ZNSt11char_traitsIcE4moveEPcPKcm+0x5b>
    4747:	b8 00 00 00 00       	mov    eax,0x0
    474c:	84 c0                	test   al,al
    474e:	74 19                	je     4769 <_ZNSt11char_traitsIcE4moveEPcPKcm+0x43>
    4750:	48 8b 55 e8          	mov    rdx,QWORD PTR [rbp-0x18]
    4754:	48 8b 4d f0          	mov    rcx,QWORD PTR [rbp-0x10]
    4758:	48 8b 45 f8          	mov    rax,QWORD PTR [rbp-0x8]
    475c:	48 89 ce             	mov    rsi,rcx
    475f:	48 89 c7             	mov    rdi,rax
    4762:	e8 6d 1f 00 00       	call   66d4 <_ZN9__gnu_cxx11char_traitsIcE4moveEPcPKcm>
    4767:	eb 18                	jmp    4781 <_ZNSt11char_traitsIcE4moveEPcPKcm+0x5b>
    4769:	48 8b 55 e8          	mov    rdx,QWORD PTR [rbp-0x18]
    476d:	48 8b 4d f0          	mov    rcx,QWORD PTR [rbp-0x10]
    4771:	48 8b 45 f8          	mov    rax,QWORD PTR [rbp-0x8]
    4775:	48 89 ce             	mov    rsi,rcx
    4778:	48 89 c7             	mov    rdi,rax
    477b:	e8 90 fb ff ff       	call   4310 <memmove@plt>
    4780:	90                   	nop
    4781:	c9                   	leave
    4782:	c3                   	ret

0000000000004783 <_ZNSt11char_traitsIcE4copyEPcPKcm>:
    4783:	55                   	push   rbp
    4784:	48 89 e5             	mov    rbp,rsp
    4787:	48 83 ec 20          	sub    rsp,0x20
    478b:	48 89 7d f8          	mov    QWORD PTR [rbp-0x8],rdi
    478f:	48 89 75 f0          	mov    QWORD PTR [rbp-0x10],rsi
    4793:	48 89 55 e8          	mov    QWORD PTR [rbp-0x18],rdx
    4797:	48 83 7d e8 00       	cmp    QWORD PTR [rbp-0x18],0x0
    479c:	75 06                	jne    47a4 <_ZNSt11char_traitsIcE4copyEPcPKcm+0x21>
    479e:	48 8b 45 f8          	mov    rax,QWORD PTR [rbp-0x8]
    47a2:	eb 40                	jmp    47e4 <_ZNSt11char_traitsIcE4copyEPcPKcm+0x61>
    47a4:	b8 00 00 00 00       	mov    eax,0x0
    47a9:	84 c0                	test   al,al
    47ab:	74 19                	je     47c6 <_ZNSt11char_traitsIcE4copyEPcPKcm+0x43>
    47ad:	48 8b 55 e8          	mov    rdx,QWORD PTR [rbp-0x18]
    47b1:	48 8b 4d f0          	mov    rcx,QWORD PTR [rbp-0x10]
    47b5:	48 8b 45 f8          	mov    rax,QWORD PTR [rbp-0x8]
    47b9:	48 89 ce             	mov    rsi,rcx
    47bc:	48 89 c7             	mov    rdi,rax
    47bf:	e8 74 1f 00 00       	call   6738 <_ZN9__gnu_cxx11char_traitsIcE4copyEPcPKcm>
    47c4:	eb 1e                	jmp    47e4 <_ZNSt11char_traitsIcE4copyEPcPKcm+0x61>
    47c6:	48 8b 55 f8          	mov    rdx,QWORD PTR [rbp-0x8]
    47ca:	48 8b 45 f0          	mov    rax,QWORD PTR [rbp-0x10]
    47ce:	48 89 d1             	mov    rcx,rdx
    47d1:	48 89 c6             	mov    rsi,rax
    47d4:	48 8b 45 e8          	mov    rax,QWORD PTR [rbp-0x18]
    47d8:	48 89 c2             	mov    rdx,rax
    47db:	48 89 cf             	mov    rdi,rcx
    47de:	e8 dd f9 ff ff       	call   41c0 <memcpy@plt>
    47e3:	90                   	nop
    47e4:	c9                   	leave
    47e5:	c3                   	ret

00000000000047e6 <_ZNSt11char_traitsIcE6assignEPcmc>:
    47e6:	55                   	push   rbp
    47e7:	48 89 e5             	mov    rbp,rsp
    47ea:	48 83 ec 20          	sub    rsp,0x20
    47ee:	48 89 7d f8          	mov    QWORD PTR [rbp-0x8],rdi
    47f2:	48 89 75 f0          	mov    QWORD PTR [rbp-0x10],rsi
    47f6:	89 d0                	mov    eax,edx
    47f8:	88 45 ec             	mov    BYTE PTR [rbp-0x14],al
    47fb:	48 83 7d f0 00       	cmp    QWORD PTR [rbp-0x10],0x0
    4800:	75 06                	jne    4808 <_ZNSt11char_traitsIcE6assignEPcmc+0x22>
    4802:	48 8b 45 f8          	mov    rax,QWORD PTR [rbp-0x8]
    4806:	eb 39                	jmp    4841 <_ZNSt11char_traitsIcE6assignEPcmc+0x5b>
    4808:	b8 00 00 00 00       	mov    eax,0x0
    480d:	84 c0                	test   al,al
    480f:	74 19                	je     482a <_ZNSt11char_traitsIcE6assignEPcmc+0x44>
    4811:	0f be 55 ec          	movsx  edx,BYTE PTR [rbp-0x14]
    4815:	48 8b 4d f0          	mov    rcx,QWORD PTR [rbp-0x10]
    4819:	48 8b 45 f8          	mov    rax,QWORD PTR [rbp-0x8]
    481d:	48 89 ce             	mov    rsi,rcx
    4820:	48 89 c7             	mov    rdi,rax
    4823:	e8 9e 1f 00 00       	call   67c6 <_ZN9__gnu_cxx11char_traitsIcE6assignEPcmc>
    4828:	eb 17                	jmp    4841 <_ZNSt11char_traitsIcE6assignEPcmc+0x5b>
    482a:	0f be 4d ec          	movsx  ecx,BYTE PTR [rbp-0x14]
    482e:	48 8b 55 f0          	mov    rdx,QWORD PTR [rbp-0x10]
    4832:	48 8b 45 f8          	mov    rax,QWORD PTR [rbp-0x8]
    4836:	89 ce                	mov    esi,ecx
    4838:	48 89 c7             	mov    rdi,rax
    483b:	e8 c0 f8 ff ff       	call   4100 <memset@plt>
    4840:	90                   	nop
    4841:	c9                   	leave
    4842:	c3                   	ret

0000000000004843 <_ZSt10__sv_checkmmPKc>:
    4843:	55                   	push   rbp
    4844:	48 89 e5             	mov    rbp,rsp
    4847:	48 83 ec 20          	sub    rsp,0x20
    484b:	48 89 7d f8          	mov    QWORD PTR [rbp-0x8],rdi
    484f:	48 89 75 f0          	mov    QWORD PTR [rbp-0x10],rsi
    4853:	48 89 55 e8          	mov    QWORD PTR [rbp-0x18],rdx
    4857:	48 8b 45 f0          	mov    rax,QWORD PTR [rbp-0x10]
    485b:	48 39 45 f8          	cmp    QWORD PTR [rbp-0x8],rax
    485f:	73 23                	jae    4884 <_ZSt10__sv_checkmmPKc+0x41>
    4861:	48 8b 4d f8          	mov    rcx,QWORD PTR [rbp-0x8]
    4865:	48 8b 55 f0          	mov    rdx,QWORD PTR [rbp-0x10]
    4869:	48 8b 45 e8          	mov    rax,QWORD PTR [rbp-0x18]
    486d:	48 89 c6             	mov    rsi,rax
    4870:	48 8d 05 99 77 01 00 	lea    rax,[rip+0x17799]        # 1c010 <_ZNSt6ranges4_Cpo4dataE+0x8>
    4877:	48 89 c7             	mov    rdi,rax
    487a:	b8 00 00 00 00       	mov    eax,0x0
    487f:	e8 4c fa ff ff       	call   42d0 <_ZSt24__throw_out_of_range_fmtPKcz@plt>
    4884:	48 8b 45 f0          	mov    rax,QWORD PTR [rbp-0x10]
    4888:	c9                   	leave
    4889:	c3                   	ret

000000000000488a <_ZNSt7__cxx1112basic_stringIcSt11char_traitsIcESaIcEE13_M_local_dataEv>:
    488a:	55                   	push   rbp
    488b:	48 89 e5             	mov    rbp,rsp
    488e:	48 83 ec 10          	sub    rsp,0x10
    4892:	48 89 7d f8          	mov    QWORD PTR [rbp-0x8],rdi
    4896:	48 8b 45 f8          	mov    rax,QWORD PTR [rbp-0x8]
    489a:	48 83 c0 10          	add    rax,0x10
    489e:	48 89 c7             	mov    rdi,rax
    48a1:	e8 02 00 00 00       	call   48a8 <_ZNSt19__ptr_traits_ptr_toIPccLb0EE10pointer_toERc>
    48a6:	c9                   	leave
    48a7:	c3                   	ret

00000000000048a8 <_ZNSt19__ptr_traits_ptr_toIPccLb0EE10pointer_toERc>:
    48a8:	55                   	push   rbp
    48a9:	48 89 e5             	mov    rbp,rsp
    48ac:	48 83 ec 10          	sub    rsp,0x10
    48b0:	48 89 7d f8          	mov    QWORD PTR [rbp-0x8],rdi
    48b4:	48 8b 45 f8          	mov    rax,QWORD PTR [rbp-0x8]
    48b8:	48 89 c7             	mov    rdi,rax
    48bb:	e8 02 00 00 00       	call   48c2 <_ZSt9addressofIcEPT_RS0_>
    48c0:	c9                   	leave
    48c1:	c3                   	ret

00000000000048c2 <_ZSt9addressofIcEPT_RS0_>:
    48c2:	55                   	push   rbp
    48c3:	48 89 e5             	mov    rbp,rsp
    48c6:	48 83 ec 10          	sub    rsp,0x10
    48ca:	48 89 7d f8          	mov    QWORD PTR [rbp-0x8],rdi
    48ce:	48 8b 45 f8          	mov    rax,QWORD PTR [rbp-0x8]
    48d2:	48 89 c7             	mov    rdi,rax
    48d5:	e8 02 00 00 00       	call   48dc <_ZSt11__addressofIcEPT_RS0_>
    48da:	c9                   	leave
    48db:	c3                   	ret

00000000000048dc <_ZSt11__addressofIcEPT_RS0_>:
    48dc:	55                   	push   rbp
    48dd:	48 89 e5             	mov    rbp,rsp
    48e0:	48 89 7d f8          	mov    QWORD PTR [rbp-0x8],rdi
    48e4:	48 8b 45 f8          	mov    rax,QWORD PTR [rbp-0x8]
    48e8:	5d                   	pop    rbp
    48e9:	c3                   	ret

00000000000048ea <_ZNSt7__cxx1112basic_stringIcSt11char_traitsIcESaIcEE12_Alloc_hiderC1EPcOS3_>:
    48ea:	55                   	push   rbp
    48eb:	48 89 e5             	mov    rbp,rsp
    48ee:	48 83 ec 40          	sub    rsp,0x40
    48f2:	48 89 7d d8          	mov    QWORD PTR [rbp-0x28],rdi
    48f6:	48 89 75 d0          	mov    QWORD PTR [rbp-0x30],rsi
    48fa:	48 89 55 c8          	mov    QWORD PTR [rbp-0x38],rdx
    48fe:	48 8b 45 c8          	mov    rax,QWORD PTR [rbp-0x38]
    4902:	48 89 c7             	mov    rdi,rax
    4905:	e8 2c 00 00 00       	call   4936 <_ZSt4moveIRSaIcEEONSt16remove_referenceIT_E4typeEOS3_>
    490a:	48 8b 55 d8          	mov    rdx,QWORD PTR [rbp-0x28]
    490e:	48 89 55 e0          	mov    QWORD PTR [rbp-0x20],rdx
    4912:	48 89 45 e8          	mov    QWORD PTR [rbp-0x18],rax
    4916:	48 8b 45 e0          	mov    rax,QWORD PTR [rbp-0x20]
    491a:	48 89 45 f0          	mov    QWORD PTR [rbp-0x10],rax
    491e:	48 8b 45 e8          	mov    rax,QWORD PTR [rbp-0x18]
    4922:	48 89 45 f8          	mov    QWORD PTR [rbp-0x8],rax
    4926:	90                   	nop
    4927:	90                   	nop
    4928:	48 8b 45 d8          	mov    rax,QWORD PTR [rbp-0x28]
    492c:	48 8b 55 d0          	mov    rdx,QWORD PTR [rbp-0x30]
    4930:	48 89 10             	mov    QWORD PTR [rax],rdx
    4933:	90                   	nop
    4934:	c9                   	leave
    4935:	c3                   	ret

0000000000004936 <_ZSt4moveIRSaIcEEONSt16remove_referenceIT_E4typeEOS3_>:
    4936:	55                   	push   rbp
    4937:	48 89 e5             	mov    rbp,rsp
    493a:	48 89 7d f8          	mov    QWORD PTR [rbp-0x8],rdi
    493e:	48 8b 45 f8          	mov    rax,QWORD PTR [rbp-0x8]
    4942:	5d                   	pop    rbp
    4943:	c3                   	ret

0000000000004944 <_ZNSt7__cxx1112basic_stringIcSt11char_traitsIcESaIcEE12_Alloc_hiderD1Ev>:
    4944:	55                   	push   rbp
    4945:	48 89 e5             	mov    rbp,rsp
    4948:	48 89 7d e8          	mov    QWORD PTR [rbp-0x18],rdi
    494c:	48 8b 45 e8          	mov    rax,QWORD PTR [rbp-0x18]
    4950:	48 89 45 f8          	mov    QWORD PTR [rbp-0x8],rax
    4954:	90                   	nop
    4955:	90                   	nop
    4956:	5d                   	pop    rbp
    4957:	c3                   	ret

0000000000004958 <_ZNSt7__cxx1112basic_stringIcSt11char_traitsIcESaIcEEC1Ev>:
    4958:	55                   	push   rbp
    4959:	48 89 e5             	mov    rbp,rsp
    495c:	53                   	push   rbx
    495d:	48 83 ec 48          	sub    rsp,0x48
    4961:	48 89 7d b8          	mov    QWORD PTR [rbp-0x48],rdi
    4965:	64 48 8b 04 25 28 00 	mov    rax,QWORD PTR fs:0x28
    496c:	00 00 
    496e:	48 89 45 e8          	mov    QWORD PTR [rbp-0x18],rax
    4972:	31 c0                	xor    eax,eax
    4974:	48 8b 5d b8          	mov    rbx,QWORD PTR [rbp-0x48]
    4978:	48 8d 45 cf          	lea    rax,[rbp-0x31]
    497c:	48 89 45 e0          	mov    QWORD PTR [rbp-0x20],rax
    4980:	90                   	nop
    4981:	90                   	nop
    4982:	48 8b 45 b8          	mov    rax,QWORD PTR [rbp-0x48]
    4986:	48 89 c7             	mov    rdi,rax
    4989:	e8 fc fe ff ff       	call   488a <_ZNSt7__cxx1112basic_stringIcSt11char_traitsIcESaIcEE13_M_local_dataEv>
    498e:	48 89 c1             	mov    rcx,rax
    4991:	48 8d 45 cf          	lea    rax,[rbp-0x31]
    4995:	48 89 c2             	mov    rdx,rax
    4998:	48 89 ce             	mov    rsi,rcx
    499b:	48 89 df             	mov    rdi,rbx
    499e:	e8 47 ff ff ff       	call   48ea <_ZNSt7__cxx1112basic_stringIcSt11char_traitsIcESaIcEE12_Alloc_hiderC1EPcOS3_>
    49a3:	90                   	nop
    49a4:	48 8b 45 b8          	mov    rax,QWORD PTR [rbp-0x48]
    49a8:	48 89 45 d0          	mov    QWORD PTR [rbp-0x30],rax
    49ac:	e8 f8 fa ff ff       	call   44a9 <_ZSt21is_constant_evaluatedv>
    49b1:	84 c0                	test   al,al
    49b3:	74 28                	je     49dd <_ZNSt7__cxx1112basic_stringIcSt11char_traitsIcESaIcEEC1Ev+0x85>
    49b5:	48 c7 45 d8 00 00 00 	mov    QWORD PTR [rbp-0x28],0x0
    49bc:	00 
    49bd:	eb 17                	jmp    49d6 <_ZNSt7__cxx1112basic_stringIcSt11char_traitsIcESaIcEEC1Ev+0x7e>
    49bf:	48 8b 55 d0          	mov    rdx,QWORD PTR [rbp-0x30]
    49c3:	48 8b 45 d8          	mov    rax,QWORD PTR [rbp-0x28]
    49c7:	48 01 d0             	add    rax,rdx
    49ca:	48 83 c0 10          	add    rax,0x10
    49ce:	c6 00 00             	mov    BYTE PTR [rax],0x0
    49d1:	48 83 45 d8 01       	add    QWORD PTR [rbp-0x28],0x1
    49d6:	48 83 7d d8 0f       	cmp    QWORD PTR [rbp-0x28],0xf
    49db:	76 e2                	jbe    49bf <_ZNSt7__cxx1112basic_stringIcSt11char_traitsIcESaIcEEC1Ev+0x67>
    49dd:	90                   	nop
    49de:	48 8b 45 b8          	mov    rax,QWORD PTR [rbp-0x48]
    49e2:	be 00 00 00 00       	mov    esi,0x0
    49e7:	48 89 c7             	mov    rdi,rax
    49ea:	e8 cd 1e 00 00       	call   68bc <_ZNSt7__cxx1112basic_stringIcSt11char_traitsIcESaIcEE13_M_set_lengthEm>
    49ef:	90                   	nop
    49f0:	48 8b 45 e8          	mov    rax,QWORD PTR [rbp-0x18]
    49f4:	64 48 2b 04 25 28 00 	sub    rax,QWORD PTR fs:0x28
    49fb:	00 00 
    49fd:	74 05                	je     4a04 <_ZNSt7__cxx1112basic_stringIcSt11char_traitsIcESaIcEEC1Ev+0xac>
    49ff:	e8 5c f8 ff ff       	call   4260 <__stack_chk_fail@plt>
    4a04:	48 8b 5d f8          	mov    rbx,QWORD PTR [rbp-0x8]
    4a08:	c9                   	leave
    4a09:	c3                   	ret

0000000000004a0a <_ZNSt8__detail14__to_chars_lenIjEEjT_i>:
    4a0a:	55                   	push   rbp
    4a0b:	48 89 e5             	mov    rbp,rsp
    4a0e:	89 7d dc             	mov    DWORD PTR [rbp-0x24],edi
    4a11:	89 75 d8             	mov    DWORD PTR [rbp-0x28],esi
    4a14:	c7 45 ec 01 00 00 00 	mov    DWORD PTR [rbp-0x14],0x1
    4a1b:	8b 45 d8             	mov    eax,DWORD PTR [rbp-0x28]
    4a1e:	0f af c0             	imul   eax,eax
    4a21:	89 45 f0             	mov    DWORD PTR [rbp-0x10],eax
    4a24:	8b 45 d8             	mov    eax,DWORD PTR [rbp-0x28]
    4a27:	8b 55 f0             	mov    edx,DWORD PTR [rbp-0x10]
    4a2a:	0f af c2             	imul   eax,edx
    4a2d:	89 45 f4             	mov    DWORD PTR [rbp-0xc],eax
    4a30:	8b 45 d8             	mov    eax,DWORD PTR [rbp-0x28]
    4a33:	0f af 45 f4          	imul   eax,DWORD PTR [rbp-0xc]
    4a37:	89 c0                	mov    eax,eax
    4a39:	48 89 45 f8          	mov    QWORD PTR [rbp-0x8],rax
    4a3d:	8b 45 d8             	mov    eax,DWORD PTR [rbp-0x28]
    4a40:	39 45 dc             	cmp    DWORD PTR [rbp-0x24],eax
    4a43:	73 05                	jae    4a4a <_ZNSt8__detail14__to_chars_lenIjEEjT_i+0x40>
    4a45:	8b 45 ec             	mov    eax,DWORD PTR [rbp-0x14]
    4a48:	eb 46                	jmp    4a90 <_ZNSt8__detail14__to_chars_lenIjEEjT_i+0x86>
    4a4a:	8b 45 dc             	mov    eax,DWORD PTR [rbp-0x24]
    4a4d:	3b 45 f0             	cmp    eax,DWORD PTR [rbp-0x10]
    4a50:	73 08                	jae    4a5a <_ZNSt8__detail14__to_chars_lenIjEEjT_i+0x50>
    4a52:	8b 45 ec             	mov    eax,DWORD PTR [rbp-0x14]
    4a55:	83 c0 01             	add    eax,0x1
    4a58:	eb 36                	jmp    4a90 <_ZNSt8__detail14__to_chars_lenIjEEjT_i+0x86>
    4a5a:	8b 45 dc             	mov    eax,DWORD PTR [rbp-0x24]
    4a5d:	3b 45 f4             	cmp    eax,DWORD PTR [rbp-0xc]
    4a60:	73 08                	jae    4a6a <_ZNSt8__detail14__to_chars_lenIjEEjT_i+0x60>
    4a62:	8b 45 ec             	mov    eax,DWORD PTR [rbp-0x14]
    4a65:	83 c0 02             	add    eax,0x2
    4a68:	eb 26                	jmp    4a90 <_ZNSt8__detail14__to_chars_lenIjEEjT_i+0x86>
    4a6a:	8b 45 dc             	mov    eax,DWORD PTR [rbp-0x24]
    4a6d:	48 3b 45 f8          	cmp    rax,QWORD PTR [rbp-0x8]
    4a71:	73 08                	jae    4a7b <_ZNSt8__detail14__to_chars_lenIjEEjT_i+0x71>
    4a73:	8b 45 ec             	mov    eax,DWORD PTR [rbp-0x14]
    4a76:	83 c0 03             	add    eax,0x3
    4a79:	eb 15                	jmp    4a90 <_ZNSt8__detail14__to_chars_lenIjEEjT_i+0x86>
    4a7b:	8b 45 dc             	mov    eax,DWORD PTR [rbp-0x24]
    4a7e:	ba 00 00 00 00       	mov    edx,0x0
    4a83:	48 f7 75 f8          	div    QWORD PTR [rbp-0x8]
    4a87:	89 45 dc             	mov    DWORD PTR [rbp-0x24],eax
    4a8a:	83 45 ec 04          	add    DWORD PTR [rbp-0x14],0x4
    4a8e:	eb ad                	jmp    4a3d <_ZNSt8__detail14__to_chars_lenIjEEjT_i+0x33>
    4a90:	5d                   	pop    rbp
    4a91:	c3                   	ret

0000000000004a92 <_ZNSt8__detail14__to_chars_lenImEEjT_i>:
    4a92:	55                   	push   rbp
    4a93:	48 89 e5             	mov    rbp,rsp
    4a96:	48 89 7d d8          	mov    QWORD PTR [rbp-0x28],rdi
    4a9a:	89 75 d4             	mov    DWORD PTR [rbp-0x2c],esi
    4a9d:	c7 45 ec 01 00 00 00 	mov    DWORD PTR [rbp-0x14],0x1
    4aa4:	8b 45 d4             	mov    eax,DWORD PTR [rbp-0x2c]
    4aa7:	0f af c0             	imul   eax,eax
    4aaa:	89 45 f0             	mov    DWORD PTR [rbp-0x10],eax
    4aad:	8b 45 d4             	mov    eax,DWORD PTR [rbp-0x2c]
    4ab0:	8b 55 f0             	mov    edx,DWORD PTR [rbp-0x10]
    4ab3:	0f af c2             	imul   eax,edx
    4ab6:	89 45 f4             	mov    DWORD PTR [rbp-0xc],eax
    4ab9:	8b 45 d4             	mov    eax,DWORD PTR [rbp-0x2c]
    4abc:	0f af 45 f4          	imul   eax,DWORD PTR [rbp-0xc]
    4ac0:	89 c0                	mov    eax,eax
    4ac2:	48 89 45 f8          	mov    QWORD PTR [rbp-0x8],rax
    4ac6:	8b 45 d4             	mov    eax,DWORD PTR [rbp-0x2c]
    4ac9:	89 c0                	mov    eax,eax
    4acb:	48 39 45 d8          	cmp    QWORD PTR [rbp-0x28],rax
    4acf:	73 05                	jae    4ad6 <_ZNSt8__detail14__to_chars_lenImEEjT_i+0x44>
    4ad1:	8b 45 ec             	mov    eax,DWORD PTR [rbp-0x14]
    4ad4:	eb 4b                	jmp    4b21 <_ZNSt8__detail14__to_chars_lenImEEjT_i+0x8f>
    4ad6:	8b 45 f0             	mov    eax,DWORD PTR [rbp-0x10]
    4ad9:	48 39 45 d8          	cmp    QWORD PTR [rbp-0x28],rax
    4add:	73 08                	jae    4ae7 <_ZNSt8__detail14__to_chars_lenImEEjT_i+0x55>
    4adf:	8b 45 ec             	mov    eax,DWORD PTR [rbp-0x14]
    4ae2:	83 c0 01             	add    eax,0x1
    4ae5:	eb 3a                	jmp    4b21 <_ZNSt8__detail14__to_chars_lenImEEjT_i+0x8f>
    4ae7:	8b 45 f4             	mov    eax,DWORD PTR [rbp-0xc]
    4aea:	48 39 45 d8          	cmp    QWORD PTR [rbp-0x28],rax
    4aee:	73 08                	jae    4af8 <_ZNSt8__detail14__to_chars_lenImEEjT_i+0x66>
    4af0:	8b 45 ec             	mov    eax,DWORD PTR [rbp-0x14]
    4af3:	83 c0 02             	add    eax,0x2
    4af6:	eb 29                	jmp    4b21 <_ZNSt8__detail14__to_chars_lenImEEjT_i+0x8f>
    4af8:	48 8b 45 d8          	mov    rax,QWORD PTR [rbp-0x28]
    4afc:	48 3b 45 f8          	cmp    rax,QWORD PTR [rbp-0x8]
    4b00:	73 08                	jae    4b0a <_ZNSt8__detail14__to_chars_lenImEEjT_i+0x78>
    4b02:	8b 45 ec             	mov    eax,DWORD PTR [rbp-0x14]
    4b05:	83 c0 03             	add    eax,0x3
    4b08:	eb 17                	jmp    4b21 <_ZNSt8__detail14__to_chars_lenImEEjT_i+0x8f>
    4b0a:	48 8b 45 d8          	mov    rax,QWORD PTR [rbp-0x28]
    4b0e:	ba 00 00 00 00       	mov    edx,0x0
    4b13:	48 f7 75 f8          	div    QWORD PTR [rbp-0x8]
    4b17:	48 89 45 d8          	mov    QWORD PTR [rbp-0x28],rax
    4b1b:	83 45 ec 04          	add    DWORD PTR [rbp-0x14],0x4
    4b1f:	eb a5                	jmp    4ac6 <_ZNSt8__detail14__to_chars_lenImEEjT_i+0x34>
    4b21:	5d                   	pop    rbp
    4b22:	c3                   	ret

0000000000004b23 <_ZNSt8__detail14__to_chars_lenIyEEjT_i>:
    4b23:	55                   	push   rbp
    4b24:	48 89 e5             	mov    rbp,rsp
    4b27:	48 89 7d d8          	mov    QWORD PTR [rbp-0x28],rdi
    4b2b:	89 75 d4             	mov    DWORD PTR [rbp-0x2c],esi
    4b2e:	c7 45 ec 01 00 00 00 	mov    DWORD PTR [rbp-0x14],0x1
    4b35:	8b 45 d4             	mov    eax,DWORD PTR [rbp-0x2c]
    4b38:	0f af c0             	imul   eax,eax
    4b3b:	89 45 f0             	mov    DWORD PTR [rbp-0x10],eax
    4b3e:	8b 45 d4             	mov    eax,DWORD PTR [rbp-0x2c]
    4b41:	8b 55 f0             	mov    edx,DWORD PTR [rbp-0x10]
    4b44:	0f af c2             	imul   eax,edx
    4b47:	89 45 f4             	mov    DWORD PTR [rbp-0xc],eax
    4b4a:	8b 45 d4             	mov    eax,DWORD PTR [rbp-0x2c]
    4b4d:	0f af 45 f4          	imul   eax,DWORD PTR [rbp-0xc]
    4b51:	89 c0                	mov    eax,eax
    4b53:	48 89 45 f8          	mov    QWORD PTR [rbp-0x8],rax
    4b57:	8b 45 d4             	mov    eax,DWORD PTR [rbp-0x2c]
    4b5a:	89 c0                	mov    eax,eax
    4b5c:	48 39 45 d8          	cmp    QWORD PTR [rbp-0x28],rax
    4b60:	73 05                	jae    4b67 <_ZNSt8__detail14__to_chars_lenIyEEjT_i+0x44>
    4b62:	8b 45 ec             	mov    eax,DWORD PTR [rbp-0x14]
    4b65:	eb 4b                	jmp    4bb2 <_ZNSt8__detail14__to_chars_lenIyEEjT_i+0x8f>
    4b67:	8b 45 f0             	mov    eax,DWORD PTR [rbp-0x10]
    4b6a:	48 39 45 d8          	cmp    QWORD PTR [rbp-0x28],rax
    4b6e:	73 08                	jae    4b78 <_ZNSt8__detail14__to_chars_lenIyEEjT_i+0x55>
    4b70:	8b 45 ec             	mov    eax,DWORD PTR [rbp-0x14]
    4b73:	83 c0 01             	add    eax,0x1
    4b76:	eb 3a                	jmp    4bb2 <_ZNSt8__detail14__to_chars_lenIyEEjT_i+0x8f>
    4b78:	8b 45 f4             	mov    eax,DWORD PTR [rbp-0xc]
    4b7b:	48 39 45 d8          	cmp    QWORD PTR [rbp-0x28],rax
    4b7f:	73 08                	jae    4b89 <_ZNSt8__detail14__to_chars_lenIyEEjT_i+0x66>
    4b81:	8b 45 ec             	mov    eax,DWORD PTR [rbp-0x14]
    4b84:	83 c0 02             	add    eax,0x2
    4b87:	eb 29                	jmp    4bb2 <_ZNSt8__detail14__to_chars_lenIyEEjT_i+0x8f>
    4b89:	48 8b 45 d8          	mov    rax,QWORD PTR [rbp-0x28]
    4b8d:	48 3b 45 f8          	cmp    rax,QWORD PTR [rbp-0x8]
    4b91:	73 08                	jae    4b9b <_ZNSt8__detail14__to_chars_lenIyEEjT_i+0x78>
    4b93:	8b 45 ec             	mov    eax,DWORD PTR [rbp-0x14]
    4b96:	83 c0 03             	add    eax,0x3
    4b99:	eb 17                	jmp    4bb2 <_ZNSt8__detail14__to_chars_lenIyEEjT_i+0x8f>
    4b9b:	48 8b 45 d8          	mov    rax,QWORD PTR [rbp-0x28]
    4b9f:	ba 00 00 00 00       	mov    edx,0x0
    4ba4:	48 f7 75 f8          	div    QWORD PTR [rbp-0x8]
    4ba8:	48 89 45 d8          	mov    QWORD PTR [rbp-0x28],rax
    4bac:	83 45 ec 04          	add    DWORD PTR [rbp-0x14],0x4
    4bb0:	eb a5                	jmp    4b57 <_ZNSt8__detail14__to_chars_lenIyEEjT_i+0x34>
    4bb2:	5d                   	pop    rbp
    4bb3:	c3                   	ret

0000000000004bb4 <_ZNKSt7__cxx1112basic_stringIcSt11char_traitsIcESaIcEE4sizeEv>:
    4bb4:	55                   	push   rbp
    4bb5:	48 89 e5             	mov    rbp,rsp
    4bb8:	48 89 7d f8          	mov    QWORD PTR [rbp-0x8],rdi
    4bbc:	48 8b 45 f8          	mov    rax,QWORD PTR [rbp-0x8]
    4bc0:	48 8b 40 08          	mov    rax,QWORD PTR [rax+0x8]
    4bc4:	5d                   	pop    rbp
    4bc5:	c3                   	ret

0000000000004bc6 <_ZNSt8__detail16__extent_storageILm18446744073709551615EEC1Em>:
    4bc6:	55                   	push   rbp
    4bc7:	48 89 e5             	mov    rbp,rsp
    4bca:	48 89 7d f8          	mov    QWORD PTR [rbp-0x8],rdi
    4bce:	48 89 75 f0          	mov    QWORD PTR [rbp-0x10],rsi
    4bd2:	48 8b 45 f8          	mov    rax,QWORD PTR [rbp-0x8]
    4bd6:	48 8b 55 f0          	mov    rdx,QWORD PTR [rbp-0x10]
    4bda:	48 89 10             	mov    QWORD PTR [rax],rdx
    4bdd:	90                   	nop
    4bde:	5d                   	pop    rbp
    4bdf:	c3                   	ret

0000000000004be0 <_ZNKSt8__detail16__extent_storageILm18446744073709551615EE9_M_extentEv>:
    4be0:	55                   	push   rbp
    4be1:	48 89 e5             	mov    rbp,rsp
    4be4:	48 89 7d f8          	mov    QWORD PTR [rbp-0x8],rdi
    4be8:	48 8b 45 f8          	mov    rax,QWORD PTR [rbp-0x8]
    4bec:	48 8b 00             	mov    rax,QWORD PTR [rax]
    4bef:	5d                   	pop    rbp
    4bf0:	c3                   	ret

0000000000004bf1 <_ZNSt9__unicode17__is_scalar_valueEDi>:
    4bf1:	55                   	push   rbp
    4bf2:	48 89 e5             	mov    rbp,rsp
    4bf5:	89 7d fc             	mov    DWORD PTR [rbp-0x4],edi
    4bf8:	81 7d fc ff d7 00 00 	cmp    DWORD PTR [rbp-0x4],0xd7ff
    4bff:	77 07                	ja     4c08 <_ZNSt9__unicode17__is_scalar_valueEDi+0x17>
    4c01:	b8 01 00 00 00       	mov    eax,0x1
    4c06:	eb 1f                	jmp    4c27 <_ZNSt9__unicode17__is_scalar_valueEDi+0x36>
    4c08:	81 7d fc ff df 00 00 	cmp    DWORD PTR [rbp-0x4],0xdfff
    4c0f:	76 10                	jbe    4c21 <_ZNSt9__unicode17__is_scalar_valueEDi+0x30>
    4c11:	81 7d fc ff ff 10 00 	cmp    DWORD PTR [rbp-0x4],0x10ffff
    4c18:	77 07                	ja     4c21 <_ZNSt9__unicode17__is_scalar_valueEDi+0x30>
    4c1a:	b8 01 00 00 00       	mov    eax,0x1
    4c1f:	eb 05                	jmp    4c26 <_ZNSt9__unicode17__is_scalar_valueEDi+0x35>
    4c21:	b8 00 00 00 00       	mov    eax,0x0
    4c26:	90                   	nop
    4c27:	5d                   	pop    rbp
    4c28:	c3                   	ret
    4c29:	90                   	nop

0000000000004c2a <_ZNKSt9__unicode5_ReplclEv>:
    4c2a:	55                   	push   rbp
    4c2b:	48 89 e5             	mov    rbp,rsp
    4c2e:	48 89 7d f8          	mov    QWORD PTR [rbp-0x8],rdi
    4c32:	b8 fd ff 00 00       	mov    eax,0xfffd
    4c37:	5d                   	pop    rbp
    4c38:	c3                   	ret

0000000000004c39 <_ZNSt9__unicode9__v15_1_013__field_widthEDi>:
    4c39:	55                   	push   rbp
    4c3a:	48 89 e5             	mov    rbp,rsp
    4c3d:	48 83 ec 20          	sub    rsp,0x20
    4c41:	89 7d ec             	mov    DWORD PTR [rbp-0x14],edi
    4c44:	ba 00 11 00 00       	mov    edx,0x1100
    4c49:	8b 45 ec             	mov    eax,DWORD PTR [rbp-0x14]
    4c4c:	39 d0                	cmp    eax,edx
    4c4e:	73 07                	jae    4c57 <_ZNSt9__unicode9__v15_1_013__field_widthEDi+0x1e>
    4c50:	b8 01 00 00 00       	mov    eax,0x1
    4c55:	eb 56                	jmp    4cad <_ZNSt9__unicode9__v15_1_013__field_widthEDi+0x74>
    4c57:	48 8d 0d a2 7b 01 00 	lea    rcx,[rip+0x17ba2]        # 1c800 <_ZNSt9__unicode9__v15_1_011__gcb_edgesE>
    4c5e:	48 8d 45 ec          	lea    rax,[rbp-0x14]
    4c62:	48 89 c2             	mov    rdx,rax
    4c65:	48 89 ce             	mov    rsi,rcx
    4c68:	48 8d 05 71 78 01 00 	lea    rax,[rip+0x17871]        # 1c4e0 <_ZNSt9__unicode9__v15_1_013__width_edgesE>
    4c6f:	48 89 c7             	mov    rdi,rax
    4c72:	e8 cb 28 00 00       	call   7542 <_ZSt11upper_boundIPKDiDiET_S2_S2_RKT0_>
    4c77:	48 89 45 f8          	mov    QWORD PTR [rbp-0x8],rax
    4c7b:	48 8d 05 5e 78 01 00 	lea    rax,[rip+0x1785e]        # 1c4e0 <_ZNSt9__unicode9__v15_1_013__width_edgesE>
    4c82:	48 8b 55 f8          	mov    rdx,QWORD PTR [rbp-0x8]
    4c86:	48 29 c2             	sub    rdx,rax
    4c89:	48 89 d0             	mov    rax,rdx
    4c8c:	48 c1 f8 02          	sar    rax,0x2
    4c90:	48 89 c2             	mov    rdx,rax
    4c93:	48 89 d0             	mov    rax,rdx
    4c96:	48 c1 f8 3f          	sar    rax,0x3f
    4c9a:	48 c1 e8 3f          	shr    rax,0x3f
    4c9e:	48 01 c2             	add    rdx,rax
    4ca1:	83 e2 01             	and    edx,0x1
    4ca4:	48 29 c2             	sub    rdx,rax
    4ca7:	48 89 d0             	mov    rax,rdx
    4caa:	83 c0 01             	add    eax,0x1
    4cad:	c9                   	leave
    4cae:	c3                   	ret

0000000000004caf <_ZNSt9__unicode9__v15_1_033__grapheme_cluster_break_propertyEDi>:
    4caf:	55                   	push   rbp
    4cb0:	48 89 e5             	mov    rbp,rsp
    4cb3:	48 83 ec 30          	sub    rsp,0x30
    4cb7:	89 7d dc             	mov    DWORD PTR [rbp-0x24],edi
    4cba:	64 48 8b 04 25 28 00 	mov    rax,QWORD PTR fs:0x28
    4cc1:	00 00 
    4cc3:	48 89 45 f8          	mov    QWORD PTR [rbp-0x8],rax
    4cc7:	31 c0                	xor    eax,eax
    4cc9:	c7 45 e4 0f 00 00 00 	mov    DWORD PTR [rbp-0x1c],0xf
    4cd0:	48 8d 05 b9 95 01 00 	lea    rax,[rip+0x195b9]        # 1e290 <_ZNSt9__unicode9__v15_1_014__incb_linkersE>
    4cd7:	48 89 45 e8          	mov    QWORD PTR [rbp-0x18],rax
    4cdb:	8b 45 dc             	mov    eax,DWORD PTR [rbp-0x24]
    4cde:	c1 e0 04             	shl    eax,0x4
    4ce1:	83 c8 0f             	or     eax,0xf
    4ce4:	89 45 e0             	mov    DWORD PTR [rbp-0x20],eax
    4ce7:	48 8d 55 e0          	lea    rdx,[rbp-0x20]
    4ceb:	48 8b 45 e8          	mov    rax,QWORD PTR [rbp-0x18]
    4cef:	48 89 c6             	mov    rsi,rax
    4cf2:	48 8d 05 07 7b 01 00 	lea    rax,[rip+0x17b07]        # 1c800 <_ZNSt9__unicode9__v15_1_011__gcb_edgesE>
    4cf9:	48 89 c7             	mov    rdi,rax
    4cfc:	e8 73 28 00 00       	call   7574 <_ZSt11lower_boundIPKjjET_S2_S2_RKT0_>
    4d01:	48 89 45 f0          	mov    QWORD PTR [rbp-0x10],rax
    4d05:	48 8b 45 f0          	mov    rax,QWORD PTR [rbp-0x10]
    4d09:	48 83 e8 04          	sub    rax,0x4
    4d0d:	8b 00                	mov    eax,DWORD PTR [rax]
    4d0f:	83 e0 0f             	and    eax,0xf
    4d12:	48 8b 55 f8          	mov    rdx,QWORD PTR [rbp-0x8]
    4d16:	64 48 2b 14 25 28 00 	sub    rdx,QWORD PTR fs:0x28
    4d1d:	00 00 
    4d1f:	74 05                	je     4d26 <_ZNSt9__unicode9__v15_1_033__grapheme_cluster_break_propertyEDi+0x77>
    4d21:	e8 3a f5 ff ff       	call   4260 <__stack_chk_fail@plt>
    4d26:	c9                   	leave
    4d27:	c3                   	ret

0000000000004d28 <_ZNSt9__unicode9__v15_1_016__is_incb_linkerEDi>:
    4d28:	55                   	push   rbp
    4d29:	48 89 e5             	mov    rbp,rsp
    4d2c:	48 83 ec 20          	sub    rsp,0x20
    4d30:	89 7d ec             	mov    DWORD PTR [rbp-0x14],edi
    4d33:	48 8d 05 6e 95 01 00 	lea    rax,[rip+0x1956e]        # 1e2a8 <_ZNSt9__unicode9__v15_1_014__incb_linkersE+0x18>
    4d3a:	48 89 45 f8          	mov    QWORD PTR [rbp-0x8],rax
    4d3e:	48 8d 55 ec          	lea    rdx,[rbp-0x14]
    4d42:	48 8b 45 f8          	mov    rax,QWORD PTR [rbp-0x8]
    4d46:	48 89 c6             	mov    rsi,rax
    4d49:	48 8d 05 40 95 01 00 	lea    rax,[rip+0x19540]        # 1e290 <_ZNSt9__unicode9__v15_1_014__incb_linkersE>
    4d50:	48 89 c7             	mov    rdi,rax
    4d53:	e8 4e 28 00 00       	call   75a6 <_ZSt4findIPKDiDiET_S2_S2_RKT0_>
    4d58:	48 39 45 f8          	cmp    QWORD PTR [rbp-0x8],rax
    4d5c:	0f 95 c0             	setne  al
    4d5f:	c9                   	leave
    4d60:	c3                   	ret

0000000000004d61 <_ZNSt9__unicode9__v15_1_015__incb_propertyEDi>:
    4d61:	55                   	push   rbp
    4d62:	48 89 e5             	mov    rbp,rsp
    4d65:	48 83 ec 30          	sub    rsp,0x30
    4d69:	89 7d dc             	mov    DWORD PTR [rbp-0x24],edi
    4d6c:	64 48 8b 04 25 28 00 	mov    rax,QWORD PTR fs:0x28
    4d73:	00 00 
    4d75:	48 89 45 f8          	mov    QWORD PTR [rbp-0x8],rax
    4d79:	31 c0                	xor    eax,eax
    4d7b:	8b 45 dc             	mov    eax,DWORD PTR [rbp-0x24]
    4d7e:	c1 e0 02             	shl    eax,0x2
    4d81:	ba 02 0c 00 00       	mov    edx,0xc02
    4d86:	39 d0                	cmp    eax,edx
    4d88:	73 07                	jae    4d91 <_ZNSt9__unicode9__v15_1_015__incb_propertyEDi+0x30>
    4d8a:	b8 00 00 00 00       	mov    eax,0x0
    4d8f:	eb 49                	jmp    4dda <_ZNSt9__unicode9__v15_1_015__incb_propertyEDi+0x79>
    4d91:	c7 45 e4 03 00 00 00 	mov    DWORD PTR [rbp-0x1c],0x3
    4d98:	48 8d 05 35 9b 01 00 	lea    rax,[rip+0x19b35]        # 1e8d4 <_ZNSt9__unicode9__v15_1_012__incb_edgesE+0x614>
    4d9f:	48 89 45 e8          	mov    QWORD PTR [rbp-0x18],rax
    4da3:	8b 45 dc             	mov    eax,DWORD PTR [rbp-0x24]
    4da6:	c1 e0 02             	shl    eax,0x2
    4da9:	83 c8 03             	or     eax,0x3
    4dac:	89 45 e0             	mov    DWORD PTR [rbp-0x20],eax
    4daf:	48 8d 55 e0          	lea    rdx,[rbp-0x20]
    4db3:	48 8b 45 e8          	mov    rax,QWORD PTR [rbp-0x18]
    4db7:	48 89 c6             	mov    rsi,rax
    4dba:	48 8d 05 ff 94 01 00 	lea    rax,[rip+0x194ff]        # 1e2c0 <_ZNSt9__unicode9__v15_1_012__incb_edgesE>
    4dc1:	48 89 c7             	mov    rdi,rax
    4dc4:	e8 ab 27 00 00       	call   7574 <_ZSt11lower_boundIPKjjET_S2_S2_RKT0_>
    4dc9:	48 89 45 f0          	mov    QWORD PTR [rbp-0x10],rax
    4dcd:	48 8b 45 f0          	mov    rax,QWORD PTR [rbp-0x10]
    4dd1:	48 83 e8 04          	sub    rax,0x4
    4dd5:	8b 00                	mov    eax,DWORD PTR [rax]
    4dd7:	83 e0 03             	and    eax,0x3
    4dda:	48 8b 55 f8          	mov    rdx,QWORD PTR [rbp-0x8]
    4dde:	64 48 2b 14 25 28 00 	sub    rdx,QWORD PTR fs:0x28
    4de5:	00 00 
    4de7:	74 05                	je     4dee <_ZNSt9__unicode9__v15_1_015__incb_propertyEDi+0x8d>
    4de9:	e8 72 f4 ff ff       	call   4260 <__stack_chk_fail@plt>
    4dee:	c9                   	leave
    4def:	c3                   	ret

0000000000004df0 <_ZNSt9__unicode9__v15_1_026__is_extended_pictographicEDi>:
    4df0:	55                   	push   rbp
    4df1:	48 89 e5             	mov    rbp,rsp
    4df4:	48 83 ec 20          	sub    rsp,0x20
    4df8:	89 7d ec             	mov    DWORD PTR [rbp-0x14],edi
    4dfb:	ba a9 00 00 00       	mov    edx,0xa9
    4e00:	8b 45 ec             	mov    eax,DWORD PTR [rbp-0x14]
    4e03:	39 d0                	cmp    eax,edx
    4e05:	73 07                	jae    4e0e <_ZNSt9__unicode9__v15_1_026__is_extended_pictographicEDi+0x1e>
    4e07:	b8 00 00 00 00       	mov    eax,0x0
    4e0c:	eb 42                	jmp    4e50 <_ZNSt9__unicode9__v15_1_026__is_extended_pictographicEDi+0x60>
    4e0e:	48 8d 0d 3b 9d 01 00 	lea    rcx,[rip+0x19d3b]        # 1eb50 <_ZNSt9__unicode9__v15_1_014__xpicto_edgesE+0x270>
    4e15:	48 8d 45 ec          	lea    rax,[rbp-0x14]
    4e19:	48 89 c2             	mov    rdx,rax
    4e1c:	48 89 ce             	mov    rsi,rcx
    4e1f:	48 8d 05 ba 9a 01 00 	lea    rax,[rip+0x19aba]        # 1e8e0 <_ZNSt9__unicode9__v15_1_014__xpicto_edgesE>
    4e26:	48 89 c7             	mov    rdi,rax
    4e29:	e8 14 27 00 00       	call   7542 <_ZSt11upper_boundIPKDiDiET_S2_S2_RKT0_>
    4e2e:	48 89 45 f8          	mov    QWORD PTR [rbp-0x8],rax
    4e32:	48 8d 05 a7 9a 01 00 	lea    rax,[rip+0x19aa7]        # 1e8e0 <_ZNSt9__unicode9__v15_1_014__xpicto_edgesE>
    4e39:	48 8b 55 f8          	mov    rdx,QWORD PTR [rbp-0x8]
    4e3d:	48 29 c2             	sub    rdx,rax
    4e40:	48 89 d0             	mov    rax,rdx
    4e43:	48 c1 f8 02          	sar    rax,0x2
    4e47:	83 e0 01             	and    eax,0x1
    4e4a:	48 85 c0             	test   rax,rax
    4e4d:	0f 95 c0             	setne  al
    4e50:	c9                   	leave
    4e51:	c3                   	ret

0000000000004e52 <_ZNSt9__unicode9__v15_1_031_Grapheme_cluster_iterator_base8_M_resetEDiNS0_13_Gcb_propertyE>:
    4e52:	55                   	push   rbp
    4e53:	48 89 e5             	mov    rbp,rsp
    4e56:	48 89 7d f8          	mov    QWORD PTR [rbp-0x8],rdi
    4e5a:	89 75 f4             	mov    DWORD PTR [rbp-0xc],esi
    4e5d:	89 55 f0             	mov    DWORD PTR [rbp-0x10],edx
    4e60:	48 8b 45 f8          	mov    rax,QWORD PTR [rbp-0x8]
    4e64:	8b 55 f4             	mov    edx,DWORD PTR [rbp-0xc]
    4e67:	89 10                	mov    DWORD PTR [rax],edx
    4e69:	48 8b 45 f8          	mov    rax,QWORD PTR [rbp-0x8]
    4e6d:	8b 55 f0             	mov    edx,DWORD PTR [rbp-0x10]
    4e70:	89 50 04             	mov    DWORD PTR [rax+0x4],edx
    4e73:	48 8b 45 f8          	mov    rax,QWORD PTR [rbp-0x8]
    4e77:	c6 40 08 00          	mov    BYTE PTR [rax+0x8],0x0
    4e7b:	48 8b 45 f8          	mov    rax,QWORD PTR [rbp-0x8]
    4e7f:	c6 40 09 00          	mov    BYTE PTR [rax+0x9],0x0
    4e83:	48 8b 45 f8          	mov    rax,QWORD PTR [rbp-0x8]
    4e87:	c6 40 0a 00          	mov    BYTE PTR [rax+0xa],0x0
    4e8b:	90                   	nop
    4e8c:	5d                   	pop    rbp
    4e8d:	c3                   	ret

0000000000004e8e <_ZNSt9__unicode9__v15_1_031_Grapheme_cluster_iterator_base26_M_update_xpicto_seq_stateEDiNS0_13_Gcb_propertyE>:
    4e8e:	55                   	push   rbp
    4e8f:	48 89 e5             	mov    rbp,rsp
    4e92:	48 83 ec 20          	sub    rsp,0x20
    4e96:	48 89 7d e8          	mov    QWORD PTR [rbp-0x18],rdi
    4e9a:	89 75 e4             	mov    DWORD PTR [rbp-0x1c],esi
    4e9d:	89 55 e0             	mov    DWORD PTR [rbp-0x20],edx
    4ea0:	48 8b 45 e8          	mov    rax,QWORD PTR [rbp-0x18]
    4ea4:	0f b6 40 08          	movzx  eax,BYTE PTR [rax+0x8]
    4ea8:	3c 03                	cmp    al,0x3
    4eaa:	0f 84 87 00 00 00    	je     4f37 <_ZNSt9__unicode9__v15_1_031_Grapheme_cluster_iterator_base26_M_update_xpicto_seq_stateEDiNS0_13_Gcb_propertyE+0xa9>
    4eb0:	c6 45 ff 03          	mov    BYTE PTR [rbp-0x1],0x3
    4eb4:	48 8b 45 e8          	mov    rax,QWORD PTR [rbp-0x18]
    4eb8:	0f b6 40 08          	movzx  eax,BYTE PTR [rax+0x8]
    4ebc:	3c 01                	cmp    al,0x1
    4ebe:	74 42                	je     4f02 <_ZNSt9__unicode9__v15_1_031_Grapheme_cluster_iterator_base26_M_update_xpicto_seq_stateEDiNS0_13_Gcb_propertyE+0x74>
    4ec0:	83 7d e0 0a          	cmp    DWORD PTR [rbp-0x20],0xa
    4ec4:	75 29                	jne    4eef <_ZNSt9__unicode9__v15_1_031_Grapheme_cluster_iterator_base26_M_update_xpicto_seq_stateEDiNS0_13_Gcb_propertyE+0x61>
    4ec6:	48 8b 45 e8          	mov    rax,QWORD PTR [rbp-0x18]
    4eca:	0f b6 40 08          	movzx  eax,BYTE PTR [rax+0x8]
    4ece:	3c 02                	cmp    al,0x2
    4ed0:	75 06                	jne    4ed8 <_ZNSt9__unicode9__v15_1_031_Grapheme_cluster_iterator_base26_M_update_xpicto_seq_stateEDiNS0_13_Gcb_propertyE+0x4a>
    4ed2:	c6 45 ff 01          	mov    BYTE PTR [rbp-0x1],0x1
    4ed6:	eb 52                	jmp    4f2a <_ZNSt9__unicode9__v15_1_031_Grapheme_cluster_iterator_base26_M_update_xpicto_seq_stateEDiNS0_13_Gcb_propertyE+0x9c>
    4ed8:	48 8b 45 e8          	mov    rax,QWORD PTR [rbp-0x18]
    4edc:	8b 00                	mov    eax,DWORD PTR [rax]
    4ede:	89 c7                	mov    edi,eax
    4ee0:	e8 0b ff ff ff       	call   4df0 <_ZNSt9__unicode9__v15_1_026__is_extended_pictographicEDi>
    4ee5:	84 c0                	test   al,al
    4ee7:	74 41                	je     4f2a <_ZNSt9__unicode9__v15_1_031_Grapheme_cluster_iterator_base26_M_update_xpicto_seq_stateEDiNS0_13_Gcb_propertyE+0x9c>
    4ee9:	c6 45 ff 01          	mov    BYTE PTR [rbp-0x1],0x1
    4eed:	eb 3b                	jmp    4f2a <_ZNSt9__unicode9__v15_1_031_Grapheme_cluster_iterator_base26_M_update_xpicto_seq_stateEDiNS0_13_Gcb_propertyE+0x9c>
    4eef:	83 7d e0 04          	cmp    DWORD PTR [rbp-0x20],0x4
    4ef3:	75 35                	jne    4f2a <_ZNSt9__unicode9__v15_1_031_Grapheme_cluster_iterator_base26_M_update_xpicto_seq_stateEDiNS0_13_Gcb_propertyE+0x9c>
    4ef5:	48 8b 45 e8          	mov    rax,QWORD PTR [rbp-0x18]
    4ef9:	0f b6 40 08          	movzx  eax,BYTE PTR [rax+0x8]
    4efd:	88 45 ff             	mov    BYTE PTR [rbp-0x1],al
    4f00:	eb 28                	jmp    4f2a <_ZNSt9__unicode9__v15_1_031_Grapheme_cluster_iterator_base26_M_update_xpicto_seq_stateEDiNS0_13_Gcb_propertyE+0x9c>
    4f02:	83 7d e0 00          	cmp    DWORD PTR [rbp-0x20],0x0
    4f06:	75 15                	jne    4f1d <_ZNSt9__unicode9__v15_1_031_Grapheme_cluster_iterator_base26_M_update_xpicto_seq_stateEDiNS0_13_Gcb_propertyE+0x8f>
    4f08:	8b 45 e4             	mov    eax,DWORD PTR [rbp-0x1c]
    4f0b:	89 c7                	mov    edi,eax
    4f0d:	e8 de fe ff ff       	call   4df0 <_ZNSt9__unicode9__v15_1_026__is_extended_pictographicEDi>
    4f12:	84 c0                	test   al,al
    4f14:	74 07                	je     4f1d <_ZNSt9__unicode9__v15_1_031_Grapheme_cluster_iterator_base26_M_update_xpicto_seq_stateEDiNS0_13_Gcb_propertyE+0x8f>
    4f16:	b8 01 00 00 00       	mov    eax,0x1
    4f1b:	eb 05                	jmp    4f22 <_ZNSt9__unicode9__v15_1_031_Grapheme_cluster_iterator_base26_M_update_xpicto_seq_stateEDiNS0_13_Gcb_propertyE+0x94>
    4f1d:	b8 00 00 00 00       	mov    eax,0x0
    4f22:	84 c0                	test   al,al
    4f24:	74 04                	je     4f2a <_ZNSt9__unicode9__v15_1_031_Grapheme_cluster_iterator_base26_M_update_xpicto_seq_stateEDiNS0_13_Gcb_propertyE+0x9c>
    4f26:	c6 45 ff 02          	mov    BYTE PTR [rbp-0x1],0x2
    4f2a:	48 8b 45 e8          	mov    rax,QWORD PTR [rbp-0x18]
    4f2e:	0f b6 55 ff          	movzx  edx,BYTE PTR [rbp-0x1]
    4f32:	88 50 08             	mov    BYTE PTR [rax+0x8],dl
    4f35:	eb 01                	jmp    4f38 <_ZNSt9__unicode9__v15_1_031_Grapheme_cluster_iterator_base26_M_update_xpicto_seq_stateEDiNS0_13_Gcb_propertyE+0xaa>
    4f37:	90                   	nop
    4f38:	c9                   	leave
    4f39:	c3                   	ret

0000000000004f3a <_ZNSt9__unicode9__v15_1_031_Grapheme_cluster_iterator_base18_M_update_ri_countENS0_13_Gcb_propertyE>:
    4f3a:	55                   	push   rbp
    4f3b:	48 89 e5             	mov    rbp,rsp
    4f3e:	48 89 7d f8          	mov    QWORD PTR [rbp-0x8],rdi
    4f42:	89 75 f4             	mov    DWORD PTR [rbp-0xc],esi
    4f45:	83 7d f4 0d          	cmp    DWORD PTR [rbp-0xc],0xd
    4f49:	75 14                	jne    4f5f <_ZNSt9__unicode9__v15_1_031_Grapheme_cluster_iterator_base18_M_update_ri_countENS0_13_Gcb_propertyE+0x25>
    4f4b:	48 8b 45 f8          	mov    rax,QWORD PTR [rbp-0x8]
    4f4f:	0f b6 40 09          	movzx  eax,BYTE PTR [rax+0x9]
    4f53:	8d 50 01             	lea    edx,[rax+0x1]
    4f56:	48 8b 45 f8          	mov    rax,QWORD PTR [rbp-0x8]
    4f5a:	88 50 09             	mov    BYTE PTR [rax+0x9],dl
    4f5d:	eb 08                	jmp    4f67 <_ZNSt9__unicode9__v15_1_031_Grapheme_cluster_iterator_base18_M_update_ri_countENS0_13_Gcb_propertyE+0x2d>
    4f5f:	48 8b 45 f8          	mov    rax,QWORD PTR [rbp-0x8]
    4f63:	c6 40 09 00          	mov    BYTE PTR [rax+0x9],0x0
    4f67:	90                   	nop
    4f68:	5d                   	pop    rbp
    4f69:	c3                   	ret

0000000000004f6a <_ZNSt9__unicode9__v15_1_031_Grapheme_cluster_iterator_base20_M_update_incb_stateEDiNS0_13_Gcb_propertyE>:
    4f6a:	55                   	push   rbp
    4f6b:	48 89 e5             	mov    rbp,rsp
    4f6e:	48 83 ec 10          	sub    rsp,0x10
    4f72:	48 89 7d f8          	mov    QWORD PTR [rbp-0x8],rdi
    4f76:	89 75 f4             	mov    DWORD PTR [rbp-0xc],esi
    4f79:	89 55 f0             	mov    DWORD PTR [rbp-0x10],edx
    4f7c:	8b 45 f4             	mov    eax,DWORD PTR [rbp-0xc]
    4f7f:	89 c7                	mov    edi,eax
    4f81:	e8 a2 fd ff ff       	call   4d28 <_ZNSt9__unicode9__v15_1_016__is_incb_linkerEDi>
    4f86:	84 c0                	test   al,al
    4f88:	74 08                	je     4f92 <_ZNSt9__unicode9__v15_1_031_Grapheme_cluster_iterator_base20_M_update_incb_stateEDiNS0_13_Gcb_propertyE+0x28>
    4f8a:	48 8b 45 f8          	mov    rax,QWORD PTR [rbp-0x8]
    4f8e:	c6 40 0a 01          	mov    BYTE PTR [rax+0xa],0x1
    4f92:	90                   	nop
    4f93:	c9                   	leave
    4f94:	c3                   	ret

0000000000004f95 <_ZNSt8__detail25__from_chars_alnum_to_valILb0EEEhh>:
    4f95:	55                   	push   rbp
    4f96:	48 89 e5             	mov    rbp,rsp
    4f99:	89 f8                	mov    eax,edi
    4f9b:	88 45 fc             	mov    BYTE PTR [rbp-0x4],al
    4f9e:	0f b6 45 fc          	movzx  eax,BYTE PTR [rbp-0x4]
    4fa2:	48 98                	cdqe
    4fa4:	48 8d 15 b5 9b 01 00 	lea    rdx,[rip+0x19bb5]        # 1eb60 <_ZNSt8__detail31__from_chars_alnum_to_val_tableILb0EE5valueE>
    4fab:	0f b6 04 10          	movzx  eax,BYTE PTR [rax+rdx*1]
    4faf:	5d                   	pop    rbp
    4fb0:	c3                   	ret
    4fb1:	90                   	nop

0000000000004fb2 <_ZNSt12format_errorC1EPKc>:
    4fb2:	55                   	push   rbp
    4fb3:	48 89 e5             	mov    rbp,rsp
    4fb6:	48 83 ec 10          	sub    rsp,0x10
    4fba:	48 89 7d f8          	mov    QWORD PTR [rbp-0x8],rdi
    4fbe:	48 89 75 f0          	mov    QWORD PTR [rbp-0x10],rsi
    4fc2:	48 8b 45 f8          	mov    rax,QWORD PTR [rbp-0x8]
    4fc6:	48 8b 55 f0          	mov    rdx,QWORD PTR [rbp-0x10]
    4fca:	48 89 d6             	mov    rsi,rdx
    4fcd:	48 89 c7             	mov    rdi,rax
    4fd0:	e8 9b f3 ff ff       	call   4370 <_ZNSt13runtime_errorC2EPKc@plt>
    4fd5:	48 8d 15 24 0d 02 00 	lea    rdx,[rip+0x20d24]        # 25d00 <_ZTVSt12format_error+0x10>
    4fdc:	48 8b 45 f8          	mov    rax,QWORD PTR [rbp-0x8]
    4fe0:	48 89 10             	mov    QWORD PTR [rax],rdx
    4fe3:	90                   	nop
    4fe4:	c9                   	leave
    4fe5:	c3                   	ret

0000000000004fe6 <_ZNSt12format_errorD1Ev>:
    4fe6:	55                   	push   rbp
    4fe7:	48 89 e5             	mov    rbp,rsp
    4fea:	48 83 ec 10          	sub    rsp,0x10
    4fee:	48 89 7d f8          	mov    QWORD PTR [rbp-0x8],rdi
    4ff2:	48 8d 15 07 0d 02 00 	lea    rdx,[rip+0x20d07]        # 25d00 <_ZTVSt12format_error+0x10>
    4ff9:	48 8b 45 f8          	mov    rax,QWORD PTR [rbp-0x8]
    4ffd:	48 89 10             	mov    QWORD PTR [rax],rdx
    5000:	48 8b 45 f8          	mov    rax,QWORD PTR [rbp-0x8]
    5004:	48 89 c7             	mov    rdi,rax
    5007:	e8 34 f2 ff ff       	call   4240 <_ZNSt13runtime_errorD2Ev@plt>
    500c:	90                   	nop
    500d:	c9                   	leave
    500e:	c3                   	ret
    500f:	90                   	nop

0000000000005010 <_ZNSt12format_errorD0Ev>:
    5010:	55                   	push   rbp
    5011:	48 89 e5             	mov    rbp,rsp
    5014:	48 83 ec 10          	sub    rsp,0x10
    5018:	48 89 7d f8          	mov    QWORD PTR [rbp-0x8],rdi
    501c:	48 8b 45 f8          	mov    rax,QWORD PTR [rbp-0x8]
    5020:	48 89 c7             	mov    rdi,rax
    5023:	e8 be ff ff ff       	call   4fe6 <_ZNSt12format_errorD1Ev>
    5028:	48 8b 45 f8          	mov    rax,QWORD PTR [rbp-0x8]
    502c:	be 10 00 00 00       	mov    esi,0x10
    5031:	48 89 c7             	mov    rdi,rax
    5034:	e8 e7 f1 ff ff       	call   4220 <_ZdlPvm@plt>
    5039:	c9                   	leave
    503a:	c3                   	ret

000000000000503b <_ZSt20__throw_format_errorPKc>:
    503b:	55                   	push   rbp
    503c:	48 89 e5             	mov    rbp,rsp
    503f:	41 54                	push   r12
    5041:	53                   	push   rbx
    5042:	48 83 ec 10          	sub    rsp,0x10
    5046:	48 89 7d e8          	mov    QWORD PTR [rbp-0x18],rdi
    504a:	bf 10 00 00 00       	mov    edi,0x10
    504f:	e8 7c f0 ff ff       	call   40d0 <__cxa_allocate_exception@plt>
    5054:	48 89 c3             	mov    rbx,rax
    5057:	48 8b 45 e8          	mov    rax,QWORD PTR [rbp-0x18]
    505b:	48 89 c6             	mov    rsi,rax
    505e:	48 89 df             	mov    rdi,rbx
    5061:	e8 4c ff ff ff       	call   4fb2 <_ZNSt12format_errorC1EPKc>
    5066:	48 8d 05 79 ff ff ff 	lea    rax,[rip+0xffffffffffffff79]        # 4fe6 <_ZNSt12format_errorD1Ev>
    506d:	48 89 c2             	mov    rdx,rax
    5070:	48 8d 05 21 0d 02 00 	lea    rax,[rip+0x20d21]        # 25d98 <_ZTVN10__cxxabiv120__si_class_type_infoE@CXXABI_1.3>
    5077:	48 89 c6             	mov    rsi,rax
    507a:	48 89 df             	mov    rdi,rbx
    507d:	e8 ae f2 ff ff       	call   4330 <__cxa_throw@plt>
    5082:	49 89 c4             	mov    r12,rax
    5085:	48 89 df             	mov    rdi,rbx
    5088:	e8 f3 f0 ff ff       	call   4180 <__cxa_free_exception@plt>
    508d:	4c 89 e0             	mov    rax,r12
    5090:	48 89 c7             	mov    rdi,rax
    5093:	e8 a8 f2 ff ff       	call   4340 <_Unwind_Resume@plt>

0000000000005098 <_ZNSt8__format39__unmatched_left_brace_in_format_stringEv>:
    5098:	55                   	push   rbp
    5099:	48 89 e5             	mov    rbp,rsp
    509c:	48 8d 05 a5 6f 01 00 	lea    rax,[rip+0x16fa5]        # 1c048 <_ZNSt6ranges4_Cpo4dataE+0x40>
    50a3:	48 89 c7             	mov    rdi,rax
    50a6:	e8 90 ff ff ff       	call   503b <_ZSt20__throw_format_errorPKc>

00000000000050ab <_ZNSt8__format40__unmatched_right_brace_in_format_stringEv>:
    50ab:	55                   	push   rbp
    50ac:	48 89 e5             	mov    rbp,rsp
    50af:	48 8d 05 c2 6f 01 00 	lea    rax,[rip+0x16fc2]        # 1c078 <_ZNSt6ranges4_Cpo4dataE+0x70>
    50b6:	48 89 c7             	mov    rdi,rax
    50b9:	e8 7d ff ff ff       	call   503b <_ZSt20__throw_format_errorPKc>

00000000000050be <_ZNSt8__format39__conflicting_indexing_in_format_stringEv>:
    50be:	55                   	push   rbp
    50bf:	48 89 e5             	mov    rbp,rsp
    50c2:	48 8d 05 df 6f 01 00 	lea    rax,[rip+0x16fdf]        # 1c0a8 <_ZNSt6ranges4_Cpo4dataE+0xa0>
    50c9:	48 89 c7             	mov    rdi,rax
    50cc:	e8 6a ff ff ff       	call   503b <_ZSt20__throw_format_errorPKc>

00000000000050d1 <_ZNSt8__format33__invalid_arg_id_in_format_stringEv>:
    50d1:	55                   	push   rbp
    50d2:	48 89 e5             	mov    rbp,rsp
    50d5:	48 8d 05 0c 70 01 00 	lea    rax,[rip+0x1700c]        # 1c0e8 <_ZNSt6ranges4_Cpo4dataE+0xe0>
    50dc:	48 89 c7             	mov    rdi,rax
    50df:	e8 57 ff ff ff       	call   503b <_ZSt20__throw_format_errorPKc>

00000000000050e4 <_ZNSt8__format29__failed_to_parse_format_specEv>:
    50e4:	55                   	push   rbp
    50e5:	48 89 e5             	mov    rbp,rsp
    50e8:	48 8d 05 29 70 01 00 	lea    rax,[rip+0x17029]        # 1c118 <_ZNSt6ranges4_Cpo4dataE+0x110>
    50ef:	48 89 c7             	mov    rdi,rax
    50f2:	e8 44 ff ff ff       	call   503b <_ZSt20__throw_format_errorPKc>

00000000000050f7 <_ZNSt8__format10__is_digitEc>:
    50f7:	55                   	push   rbp
    50f8:	48 89 e5             	mov    rbp,rsp
    50fb:	48 83 ec 10          	sub    rsp,0x10
    50ff:	89 f8                	mov    eax,edi
    5101:	88 45 fc             	mov    BYTE PTR [rbp-0x4],al
    5104:	0f b6 45 fc          	movzx  eax,BYTE PTR [rbp-0x4]
    5108:	0f b6 c0             	movzx  eax,al
    510b:	89 c7                	mov    edi,eax
    510d:	e8 83 fe ff ff       	call   4f95 <_ZNSt8__detail25__from_chars_alnum_to_valILb0EEEhh>
    5112:	3c 09                	cmp    al,0x9
    5114:	0f 96 c0             	setbe  al
    5117:	c9                   	leave
    5118:	c3                   	ret

0000000000005119 <_ZNSt8__format11__is_xdigitEc>:
    5119:	55                   	push   rbp
    511a:	48 89 e5             	mov    rbp,rsp
    511d:	48 83 ec 10          	sub    rsp,0x10
    5121:	89 f8                	mov    eax,edi
    5123:	88 45 fc             	mov    BYTE PTR [rbp-0x4],al
    5126:	0f b6 45 fc          	movzx  eax,BYTE PTR [rbp-0x4]
    512a:	0f b6 c0             	movzx  eax,al
    512d:	89 c7                	mov    edi,eax
    512f:	e8 61 fe ff ff       	call   4f95 <_ZNSt8__detail25__from_chars_alnum_to_valILb0EEEhh>
    5134:	3c 0f                	cmp    al,0xf
    5136:	0f 96 c0             	setbe  al
    5139:	c9                   	leave
    513a:	c3                   	ret
    513b:	90                   	nop

000000000000513c <_ZNSt8__format16_Optional_localeC1ERKSt6locale>:
    513c:	55                   	push   rbp
    513d:	48 89 e5             	mov    rbp,rsp
    5140:	48 83 ec 10          	sub    rsp,0x10
    5144:	48 89 7d f8          	mov    QWORD PTR [rbp-0x8],rdi
    5148:	48 89 75 f0          	mov    QWORD PTR [rbp-0x10],rsi
    514c:	48 8b 45 f8          	mov    rax,QWORD PTR [rbp-0x8]
    5150:	48 8b 55 f0          	mov    rdx,QWORD PTR [rbp-0x10]
    5154:	48 89 d6             	mov    rsi,rdx
    5157:	48 89 c7             	mov    rdi,rax
    515a:	e8 01 f0 ff ff       	call   4160 <_ZNSt6localeC1ERKS_@plt>
    515f:	48 8b 45 f8          	mov    rax,QWORD PTR [rbp-0x8]
    5163:	c6 40 08 01          	mov    BYTE PTR [rax+0x8],0x1
    5167:	90                   	nop
    5168:	c9                   	leave
    5169:	c3                   	ret

000000000000516a <_ZNSt8__format16_Optional_localeD1Ev>:
    516a:	55                   	push   rbp
    516b:	48 89 e5             	mov    rbp,rsp
    516e:	48 83 ec 10          	sub    rsp,0x10
    5172:	48 89 7d f8          	mov    QWORD PTR [rbp-0x8],rdi
    5176:	48 8b 45 f8          	mov    rax,QWORD PTR [rbp-0x8]
    517a:	0f b6 40 08          	movzx  eax,BYTE PTR [rax+0x8]
    517e:	84 c0                	test   al,al
    5180:	74 0c                	je     518e <_ZNSt8__format16_Optional_localeD1Ev+0x24>
    5182:	48 8b 45 f8          	mov    rax,QWORD PTR [rbp-0x8]
    5186:	48 89 c7             	mov    rdi,rax
    5189:	e8 22 f1 ff ff       	call   42b0 <_ZNSt6localeD1Ev@plt>
    518e:	90                   	nop
    518f:	c9                   	leave
    5190:	c3                   	ret
    5191:	90                   	nop

0000000000005192 <_ZNSt8__format16_Optional_locale5valueEv>:
    5192:	55                   	push   rbp
    5193:	48 89 e5             	mov    rbp,rsp
    5196:	48 83 ec 10          	sub    rsp,0x10
    519a:	48 89 7d f8          	mov    QWORD PTR [rbp-0x8],rdi
    519e:	48 8b 45 f8          	mov    rax,QWORD PTR [rbp-0x8]
    51a2:	0f b6 40 08          	movzx  eax,BYTE PTR [rax+0x8]
    51a6:	83 f0 01             	xor    eax,0x1
    51a9:	84 c0                	test   al,al
    51ab:	74 14                	je     51c1 <_ZNSt8__format16_Optional_locale5valueEv+0x2f>
    51ad:	48 8b 45 f8          	mov    rax,QWORD PTR [rbp-0x8]
    51b1:	48 89 c7             	mov    rdi,rax
    51b4:	e8 25 24 00 00       	call   75de <_ZSt12construct_atISt6localeJEEDTgsnwcvPvLi0E_T_pispcl7declvalIT0_EEEEPS2_DpOS3_>
    51b9:	48 8b 45 f8          	mov    rax,QWORD PTR [rbp-0x8]
    51bd:	c6 40 08 01          	mov    BYTE PTR [rax+0x8],0x1
    51c1:	48 8b 45 f8          	mov    rax,QWORD PTR [rbp-0x8]
    51c5:	c9                   	leave
    51c6:	c3                   	ret
    51c7:	90                   	nop

00000000000051c8 <_ZNSt8__format9_Seq_sinkINSt7__cxx1112basic_stringIcSt11char_traitsIcESaIcEEEED1Ev>:
    51c8:	55                   	push   rbp
    51c9:	48 89 e5             	mov    rbp,rsp
    51cc:	48 83 ec 10          	sub    rsp,0x10
    51d0:	48 89 7d f8          	mov    QWORD PTR [rbp-0x8],rdi
    51d4:	48 8d 15 8d 0a 02 00 	lea    rdx,[rip+0x20a8d]        # 25c68 <_ZTVNSt8__format9_Seq_sinkINSt7__cxx1112basic_stringIcSt11char_traitsIcESaIcEEEEE+0x10>
    51db:	48 8b 45 f8          	mov    rax,QWORD PTR [rbp-0x8]
    51df:	48 89 10             	mov    QWORD PTR [rax],rdx
    51e2:	48 8b 45 f8          	mov    rax,QWORD PTR [rbp-0x8]
    51e6:	48 05 20 01 00 00    	add    rax,0x120
    51ec:	48 89 c7             	mov    rdi,rax
    51ef:	e8 38 17 00 00       	call   692c <_ZNSt7__cxx1112basic_stringIcSt11char_traitsIcESaIcEED1Ev>
    51f4:	90                   	nop
    51f5:	c9                   	leave
    51f6:	c3                   	ret

00000000000051f7 <_ZSt7vformatB5cxx11St17basic_string_viewIcSt11char_traitsIcEESt17basic_format_argsISt20basic_format_contextINSt8__format10_Sink_iterIcEEcEE>:
    51f7:	55                   	push   rbp
    51f8:	48 89 e5             	mov    rbp,rsp
    51fb:	53                   	push   rbx
    51fc:	48 81 ec c8 01 00 00 	sub    rsp,0x1c8
    5203:	48 89 bd 58 fe ff ff 	mov    QWORD PTR [rbp-0x1a8],rdi
    520a:	48 89 f0             	mov    rax,rsi
    520d:	48 89 d6             	mov    rsi,rdx
    5210:	48 89 c0             	mov    rax,rax
    5213:	ba 00 00 00 00       	mov    edx,0x0
    5218:	48 89 f2             	mov    rdx,rsi
    521b:	48 89 85 40 fe ff ff 	mov    QWORD PTR [rbp-0x1c0],rax
    5222:	48 89 95 48 fe ff ff 	mov    QWORD PTR [rbp-0x1b8],rdx
    5229:	48 89 c8             	mov    rax,rcx
    522c:	4c 89 c1             	mov    rcx,r8
    522f:	48 89 c0             	mov    rax,rax
    5232:	ba 00 00 00 00       	mov    edx,0x0
    5237:	48 89 ca             	mov    rdx,rcx
    523a:	48 89 85 30 fe ff ff 	mov    QWORD PTR [rbp-0x1d0],rax
    5241:	48 89 95 38 fe ff ff 	mov    QWORD PTR [rbp-0x1c8],rdx
    5248:	64 48 8b 04 25 28 00 	mov    rax,QWORD PTR fs:0x28
    524f:	00 00 
    5251:	48 89 45 e8          	mov    QWORD PTR [rbp-0x18],rax
    5255:	31 c0                	xor    eax,eax
    5257:	48 8d 85 a0 fe ff ff 	lea    rax,[rbp-0x160]
    525e:	48 89 85 70 fe ff ff 	mov    QWORD PTR [rbp-0x190],rax
    5265:	48 8b 9d 70 fe ff ff 	mov    rbx,QWORD PTR [rbp-0x190]
    526c:	48 8b 85 70 fe ff ff 	mov    rax,QWORD PTR [rbp-0x190]
    5273:	48 8d 50 20          	lea    rdx,[rax+0x20]
    5277:	48 8d 85 90 fe ff ff 	lea    rax,[rbp-0x170]
    527e:	48 89 d6             	mov    rsi,rdx
    5281:	48 89 c7             	mov    rdi,rax
    5284:	e8 0b 52 00 00       	call   a494 <_ZNSt4spanIcLm18446744073709551615EEC1ILm256EEERAT__c>
    5289:	48 89 9d 78 fe ff ff 	mov    QWORD PTR [rbp-0x188],rbx
    5290:	48 8b 85 90 fe ff ff 	mov    rax,QWORD PTR [rbp-0x170]
    5297:	48 8b 95 98 fe ff ff 	mov    rdx,QWORD PTR [rbp-0x168]
    529e:	48 89 85 80 fe ff ff 	mov    QWORD PTR [rbp-0x180],rax
    52a5:	48 89 95 88 fe ff ff 	mov    QWORD PTR [rbp-0x178],rdx
    52ac:	48 8d 15 25 0a 02 00 	lea    rdx,[rip+0x20a25]        # 25cd8 <__cxa_pure_virtual@CXXABI_1.3>
    52b3:	48 8b 85 78 fe ff ff 	mov    rax,QWORD PTR [rbp-0x188]
    52ba:	48 89 10             	mov    QWORD PTR [rax],rdx
    52bd:	48 8b 8d 78 fe ff ff 	mov    rcx,QWORD PTR [rbp-0x188]
    52c4:	48 8b 85 80 fe ff ff 	mov    rax,QWORD PTR [rbp-0x180]
    52cb:	48 8b 95 88 fe ff ff 	mov    rdx,QWORD PTR [rbp-0x178]
    52d2:	48 89 41 08          	mov    QWORD PTR [rcx+0x8],rax
    52d6:	48 89 51 10          	mov    QWORD PTR [rcx+0x10],rdx
    52da:	48 8b 9d 78 fe ff ff 	mov    rbx,QWORD PTR [rbp-0x188]
    52e1:	48 8d 85 80 fe ff ff 	lea    rax,[rbp-0x180]
    52e8:	48 89 c7             	mov    rdi,rax
    52eb:	e8 1a 55 00 00       	call   a80a <_ZNKSt4spanIcLm18446744073709551615EE5beginEv>
    52f0:	48 89 43 18          	mov    QWORD PTR [rbx+0x18],rax
    52f4:	90                   	nop
    52f5:	48 8d 15 b4 09 02 00 	lea    rdx,[rip+0x209b4]        # 25cb0 <__cxa_pure_virtual@CXXABI_1.3>
    52fc:	48 8b 85 70 fe ff ff 	mov    rax,QWORD PTR [rbp-0x190]
    5303:	48 89 10             	mov    QWORD PTR [rax],rdx
    5306:	90                   	nop
    5307:	48 8d 05 5a 09 02 00 	lea    rax,[rip+0x2095a]        # 25c68 <_ZTVNSt8__format9_Seq_sinkINSt7__cxx1112basic_stringIcSt11char_traitsIcESaIcEEEEE+0x10>
    530e:	48 89 85 a0 fe ff ff 	mov    QWORD PTR [rbp-0x160],rax
    5315:	48 8d 85 a0 fe ff ff 	lea    rax,[rbp-0x160]
    531c:	48 05 20 01 00 00    	add    rax,0x120
    5322:	48 89 c7             	mov    rdi,rax
    5325:	e8 2e f6 ff ff       	call   4958 <_ZNSt7__cxx1112basic_stringIcSt11char_traitsIcESaIcEEC1Ev>
    532a:	90                   	nop
    532b:	48 8d 85 a0 fe ff ff 	lea    rax,[rbp-0x160]
    5332:	48 89 85 68 fe ff ff 	mov    QWORD PTR [rbp-0x198],rax
    5339:	48 8b 85 68 fe ff ff 	mov    rax,QWORD PTR [rbp-0x198]
    5340:	48 89 c7             	mov    rdi,rax
    5343:	e8 77 51 00 00       	call   a4bf <_ZSt9addressofINSt8__format5_SinkIcEEEPT_RS3_>
    5348:	48 89 85 90 fe ff ff 	mov    QWORD PTR [rbp-0x170],rax
    534f:	90                   	nop
    5350:	48 8b 85 90 fe ff ff 	mov    rax,QWORD PTR [rbp-0x170]
    5357:	48 89 85 60 fe ff ff 	mov    QWORD PTR [rbp-0x1a0],rax
    535e:	48 8b 85 40 fe ff ff 	mov    rax,QWORD PTR [rbp-0x1c0]
    5365:	48 8b 95 48 fe ff ff 	mov    rdx,QWORD PTR [rbp-0x1b8]
    536c:	48 89 85 80 fe ff ff 	mov    QWORD PTR [rbp-0x180],rax
    5373:	48 89 95 88 fe ff ff 	mov    QWORD PTR [rbp-0x178],rdx
    537a:	48 8b 85 30 fe ff ff 	mov    rax,QWORD PTR [rbp-0x1d0]
    5381:	48 8b 95 38 fe ff ff 	mov    rdx,QWORD PTR [rbp-0x1c8]
    5388:	48 89 85 90 fe ff ff 	mov    QWORD PTR [rbp-0x170],rax
    538f:	48 89 95 98 fe ff ff 	mov    QWORD PTR [rbp-0x168],rdx
    5396:	48 8d 85 60 fe ff ff 	lea    rax,[rbp-0x1a0]
    539d:	48 89 c7             	mov    rdi,rax
    53a0:	e8 2d 37 00 00       	call   8ad2 <_ZSt4moveIRNSt8__format10_Sink_iterIcEEEONSt16remove_referenceIT_E4typeEOS5_>
    53a5:	48 8d 8d 90 fe ff ff 	lea    rcx,[rbp-0x170]
    53ac:	48 8b b5 80 fe ff ff 	mov    rsi,QWORD PTR [rbp-0x180]
    53b3:	48 8b 95 88 fe ff ff 	mov    rdx,QWORD PTR [rbp-0x178]
    53ba:	48 8b 00             	mov    rax,QWORD PTR [rax]
    53bd:	41 b8 00 00 00 00    	mov    r8d,0x0
    53c3:	48 89 c7             	mov    rdi,rax
    53c6:	e8 96 41 00 00       	call   9561 <_ZNSt8__format15__do_vformat_toINS_10_Sink_iterIcEEcSt20basic_format_contextIS2_cEEET_S5_St17basic_string_viewIT0_St11char_traitsIS7_EERKSt17basic_format_argsIT1_EPKSt6locale>
    53cb:	90                   	nop
    53cc:	48 8d 85 a0 fe ff ff 	lea    rax,[rbp-0x160]
    53d3:	48 89 c7             	mov    rdi,rax
    53d6:	e8 35 22 00 00       	call   7610 <_ZSt4moveIRNSt8__format9_Seq_sinkINSt7__cxx1112basic_stringIcSt11char_traitsIcESaIcEEEEEEONSt16remove_referenceIT_E4typeEOSB_>
    53db:	48 89 c2             	mov    rdx,rax
    53de:	48 8b 85 58 fe ff ff 	mov    rax,QWORD PTR [rbp-0x1a8]
    53e5:	48 89 d6             	mov    rsi,rdx
    53e8:	48 89 c7             	mov    rdi,rax
    53eb:	e8 2e 22 00 00       	call   761e <_ZNOSt8__format9_Seq_sinkINSt7__cxx1112basic_stringIcSt11char_traitsIcESaIcEEEE3getEv>
    53f0:	90                   	nop
    53f1:	48 8d 85 a0 fe ff ff 	lea    rax,[rbp-0x160]
    53f8:	48 89 c7             	mov    rdi,rax
    53fb:	e8 c8 fd ff ff       	call   51c8 <_ZNSt8__format9_Seq_sinkINSt7__cxx1112basic_stringIcSt11char_traitsIcESaIcEEEED1Ev>
    5400:	90                   	nop
    5401:	48 8b 45 e8          	mov    rax,QWORD PTR [rbp-0x18]
    5405:	64 48 2b 04 25 28 00 	sub    rax,QWORD PTR fs:0x28
    540c:	00 00 
    540e:	74 38                	je     5448 <_ZSt7vformatB5cxx11St17basic_string_viewIcSt11char_traitsIcEESt17basic_format_argsISt20basic_format_contextINSt8__format10_Sink_iterIcEEcEE+0x251>
    5410:	eb 31                	jmp    5443 <_ZSt7vformatB5cxx11St17basic_string_viewIcSt11char_traitsIcEESt17basic_format_argsISt20basic_format_contextINSt8__format10_Sink_iterIcEEcEE+0x24c>
    5412:	48 89 c3             	mov    rbx,rax
    5415:	48 8d 85 a0 fe ff ff 	lea    rax,[rbp-0x160]
    541c:	48 89 c7             	mov    rdi,rax
    541f:	e8 a4 fd ff ff       	call   51c8 <_ZNSt8__format9_Seq_sinkINSt7__cxx1112basic_stringIcSt11char_traitsIcESaIcEEEED1Ev>
    5424:	48 89 d8             	mov    rax,rbx
    5427:	48 8b 55 e8          	mov    rdx,QWORD PTR [rbp-0x18]
    542b:	64 48 2b 14 25 28 00 	sub    rdx,QWORD PTR fs:0x28
    5432:	00 00 
    5434:	74 05                	je     543b <_ZSt7vformatB5cxx11St17basic_string_viewIcSt11char_traitsIcEESt17basic_format_argsISt20basic_format_contextINSt8__format10_Sink_iterIcEEcEE+0x244>
    5436:	e8 25 ee ff ff       	call   4260 <__stack_chk_fail@plt>
    543b:	48 89 c7             	mov    rdi,rax
    543e:	e8 fd ee ff ff       	call   4340 <_Unwind_Resume@plt>
    5443:	e8 18 ee ff ff       	call   4260 <__stack_chk_fail@plt>
    5448:	48 8b 85 58 fe ff ff 	mov    rax,QWORD PTR [rbp-0x1a8]
    544f:	48 8b 5d f8          	mov    rbx,QWORD PTR [rbp-0x8]
    5453:	c9                   	leave
    5454:	c3                   	ret
    5455:	90                   	nop

0000000000005456 <_ZNKSt4spanIcLm18446744073709551615EE4dataEv>:
    5456:	55                   	push   rbp
    5457:	48 89 e5             	mov    rbp,rsp
    545a:	48 89 7d f8          	mov    QWORD PTR [rbp-0x8],rdi
    545e:	48 8b 45 f8          	mov    rax,QWORD PTR [rbp-0x8]
    5462:	48 8b 00             	mov    rax,QWORD PTR [rax]
    5465:	5d                   	pop    rbp
    5466:	c3                   	ret
    5467:	90                   	nop

0000000000005468 <_ZNKSt4spanIcLm18446744073709551615EE4sizeEv>:
    5468:	55                   	push   rbp
    5469:	48 89 e5             	mov    rbp,rsp
    546c:	48 83 ec 10          	sub    rsp,0x10
    5470:	48 89 7d f8          	mov    QWORD PTR [rbp-0x8],rdi
    5474:	48 8b 45 f8          	mov    rax,QWORD PTR [rbp-0x8]
    5478:	48 83 c0 08          	add    rax,0x8
    547c:	48 89 c7             	mov    rdi,rax
    547f:	e8 5c f7 ff ff       	call   4be0 <_ZNKSt8__detail16__extent_storageILm18446744073709551615EE9_M_extentEv>
    5484:	c9                   	leave
    5485:	c3                   	ret

0000000000005486 <_ZSt17vprint_nonunicodeP8_IO_FILESt17basic_string_viewIcSt11char_traitsIcEESt17basic_format_argsISt20basic_format_contextINSt8__format10_Sink_iterIcEEcEE>:
    5486:	55                   	push   rbp
    5487:	48 89 e5             	mov    rbp,rsp
    548a:	53                   	push   rbx
    548b:	48 81 ec d8 01 00 00 	sub    rsp,0x1d8
    5492:	48 89 bd 48 fe ff ff 	mov    QWORD PTR [rbp-0x1b8],rdi
    5499:	48 89 f0             	mov    rax,rsi
    549c:	48 89 d6             	mov    rsi,rdx
    549f:	48 89 c0             	mov    rax,rax
    54a2:	ba 00 00 00 00       	mov    edx,0x0
    54a7:	48 89 f2             	mov    rdx,rsi
    54aa:	48 89 85 30 fe ff ff 	mov    QWORD PTR [rbp-0x1d0],rax
    54b1:	48 89 95 38 fe ff ff 	mov    QWORD PTR [rbp-0x1c8],rdx
    54b8:	48 89 c8             	mov    rax,rcx
    54bb:	4c 89 c1             	mov    rcx,r8
    54be:	48 89 c0             	mov    rax,rax
    54c1:	ba 00 00 00 00       	mov    edx,0x0
    54c6:	48 89 ca             	mov    rdx,rcx
    54c9:	48 89 85 20 fe ff ff 	mov    QWORD PTR [rbp-0x1e0],rax
    54d0:	48 89 95 28 fe ff ff 	mov    QWORD PTR [rbp-0x1d8],rdx
    54d7:	64 48 8b 04 25 28 00 	mov    rax,QWORD PTR fs:0x28
    54de:	00 00 
    54e0:	48 89 45 e8          	mov    QWORD PTR [rbp-0x18],rax
    54e4:	31 c0                	xor    eax,eax
    54e6:	48 8d 85 a0 fe ff ff 	lea    rax,[rbp-0x160]
    54ed:	48 89 85 60 fe ff ff 	mov    QWORD PTR [rbp-0x1a0],rax
    54f4:	48 8b 9d 60 fe ff ff 	mov    rbx,QWORD PTR [rbp-0x1a0]
    54fb:	48 8b 85 60 fe ff ff 	mov    rax,QWORD PTR [rbp-0x1a0]
    5502:	48 8d 50 20          	lea    rdx,[rax+0x20]
    5506:	48 8d 85 90 fe ff ff 	lea    rax,[rbp-0x170]
    550d:	48 89 d6             	mov    rsi,rdx
    5510:	48 89 c7             	mov    rdi,rax
    5513:	e8 7c 4f 00 00       	call   a494 <_ZNSt4spanIcLm18446744073709551615EEC1ILm256EEERAT__c>
    5518:	48 89 9d 68 fe ff ff 	mov    QWORD PTR [rbp-0x198],rbx
    551f:	48 8b 85 90 fe ff ff 	mov    rax,QWORD PTR [rbp-0x170]
    5526:	48 8b 95 98 fe ff ff 	mov    rdx,QWORD PTR [rbp-0x168]
    552d:	48 89 85 80 fe ff ff 	mov    QWORD PTR [rbp-0x180],rax
    5534:	48 89 95 88 fe ff ff 	mov    QWORD PTR [rbp-0x178],rdx
    553b:	48 8d 15 96 07 02 00 	lea    rdx,[rip+0x20796]        # 25cd8 <__cxa_pure_virtual@CXXABI_1.3>
    5542:	48 8b 85 68 fe ff ff 	mov    rax,QWORD PTR [rbp-0x198]
    5549:	48 89 10             	mov    QWORD PTR [rax],rdx
    554c:	48 8b 8d 68 fe ff ff 	mov    rcx,QWORD PTR [rbp-0x198]
    5553:	48 8b 85 80 fe ff ff 	mov    rax,QWORD PTR [rbp-0x180]
    555a:	48 8b 95 88 fe ff ff 	mov    rdx,QWORD PTR [rbp-0x178]
    5561:	48 89 41 08          	mov    QWORD PTR [rcx+0x8],rax
    5565:	48 89 51 10          	mov    QWORD PTR [rcx+0x10],rdx
    5569:	48 8b 9d 68 fe ff ff 	mov    rbx,QWORD PTR [rbp-0x198]
    5570:	48 8d 85 80 fe ff ff 	lea    rax,[rbp-0x180]
    5577:	48 89 c7             	mov    rdi,rax
    557a:	e8 8b 52 00 00       	call   a80a <_ZNKSt4spanIcLm18446744073709551615EE5beginEv>
    557f:	48 89 43 18          	mov    QWORD PTR [rbx+0x18],rax
    5583:	90                   	nop
    5584:	48 8d 15 25 07 02 00 	lea    rdx,[rip+0x20725]        # 25cb0 <__cxa_pure_virtual@CXXABI_1.3>
    558b:	48 8b 85 60 fe ff ff 	mov    rax,QWORD PTR [rbp-0x1a0]
    5592:	48 89 10             	mov    QWORD PTR [rax],rdx
    5595:	90                   	nop
    5596:	48 8d 05 cb 06 02 00 	lea    rax,[rip+0x206cb]        # 25c68 <_ZTVNSt8__format9_Seq_sinkINSt7__cxx1112basic_stringIcSt11char_traitsIcESaIcEEEEE+0x10>
    559d:	48 89 85 a0 fe ff ff 	mov    QWORD PTR [rbp-0x160],rax
    55a4:	48 8d 85 a0 fe ff ff 	lea    rax,[rbp-0x160]
    55ab:	48 05 20 01 00 00    	add    rax,0x120
    55b1:	48 89 c7             	mov    rdi,rax
    55b4:	e8 9f f3 ff ff       	call   4958 <_ZNSt7__cxx1112basic_stringIcSt11char_traitsIcESaIcEEC1Ev>
    55b9:	90                   	nop
    55ba:	48 8d 85 a0 fe ff ff 	lea    rax,[rbp-0x160]
    55c1:	48 89 85 58 fe ff ff 	mov    QWORD PTR [rbp-0x1a8],rax
    55c8:	48 8b 85 58 fe ff ff 	mov    rax,QWORD PTR [rbp-0x1a8]
    55cf:	48 89 c7             	mov    rdi,rax
    55d2:	e8 e8 4e 00 00       	call   a4bf <_ZSt9addressofINSt8__format5_SinkIcEEEPT_RS3_>
    55d7:	48 89 85 90 fe ff ff 	mov    QWORD PTR [rbp-0x170],rax
    55de:	90                   	nop
    55df:	48 8b 85 90 fe ff ff 	mov    rax,QWORD PTR [rbp-0x170]
    55e6:	48 89 85 50 fe ff ff 	mov    QWORD PTR [rbp-0x1b0],rax
    55ed:	48 8b 85 30 fe ff ff 	mov    rax,QWORD PTR [rbp-0x1d0]
    55f4:	48 8b 95 38 fe ff ff 	mov    rdx,QWORD PTR [rbp-0x1c8]
    55fb:	48 89 85 80 fe ff ff 	mov    QWORD PTR [rbp-0x180],rax
    5602:	48 89 95 88 fe ff ff 	mov    QWORD PTR [rbp-0x178],rdx
    5609:	48 8b 85 20 fe ff ff 	mov    rax,QWORD PTR [rbp-0x1e0]
    5610:	48 8b 95 28 fe ff ff 	mov    rdx,QWORD PTR [rbp-0x1d8]
    5617:	48 89 85 90 fe ff ff 	mov    QWORD PTR [rbp-0x170],rax
    561e:	48 89 95 98 fe ff ff 	mov    QWORD PTR [rbp-0x168],rdx
    5625:	48 8d 85 50 fe ff ff 	lea    rax,[rbp-0x1b0]
    562c:	48 89 c7             	mov    rdi,rax
    562f:	e8 9e 34 00 00       	call   8ad2 <_ZSt4moveIRNSt8__format10_Sink_iterIcEEEONSt16remove_referenceIT_E4typeEOS5_>
    5634:	48 8d 8d 90 fe ff ff 	lea    rcx,[rbp-0x170]
    563b:	48 8b b5 80 fe ff ff 	mov    rsi,QWORD PTR [rbp-0x180]
    5642:	48 8b 95 88 fe ff ff 	mov    rdx,QWORD PTR [rbp-0x178]
    5649:	48 8b 00             	mov    rax,QWORD PTR [rax]
    564c:	41 b8 00 00 00 00    	mov    r8d,0x0
    5652:	48 89 c7             	mov    rdi,rax
    5655:	e8 07 3f 00 00       	call   9561 <_ZNSt8__format15__do_vformat_toINS_10_Sink_iterIcEEcSt20basic_format_contextIS2_cEEET_S5_St17basic_string_viewIT0_St11char_traitsIS7_EERKSt17basic_format_argsIT1_EPKSt6locale>
    565a:	90                   	nop
    565b:	48 8d 85 a0 fe ff ff 	lea    rax,[rbp-0x160]
    5662:	48 89 c7             	mov    rdi,rax
    5665:	e8 c4 20 00 00       	call   772e <_ZNSt8__format9_Seq_sinkINSt7__cxx1112basic_stringIcSt11char_traitsIcESaIcEEEE4viewEv>
    566a:	48 89 85 70 fe ff ff 	mov    QWORD PTR [rbp-0x190],rax
    5671:	48 89 95 78 fe ff ff 	mov    QWORD PTR [rbp-0x188],rdx
    5678:	48 8d 85 70 fe ff ff 	lea    rax,[rbp-0x190]
    567f:	48 89 c7             	mov    rdi,rax
    5682:	e8 e1 fd ff ff       	call   5468 <_ZNKSt4spanIcLm18446744073709551615EE4sizeEv>
    5687:	48 89 c3             	mov    rbx,rax
    568a:	48 8d 85 70 fe ff ff 	lea    rax,[rbp-0x190]
    5691:	48 89 c7             	mov    rdi,rax
    5694:	e8 bd fd ff ff       	call   5456 <_ZNKSt4spanIcLm18446744073709551615EE4dataEv>
    5699:	48 89 c7             	mov    rdi,rax
    569c:	48 8b 85 48 fe ff ff 	mov    rax,QWORD PTR [rbp-0x1b8]
    56a3:	48 89 c1             	mov    rcx,rax
    56a6:	48 89 da             	mov    rdx,rbx
    56a9:	be 01 00 00 00       	mov    esi,0x1
    56ae:	e8 cd ec ff ff       	call   4380 <fwrite@plt>
    56b3:	48 89 c3             	mov    rbx,rax
    56b6:	48 8d 85 70 fe ff ff 	lea    rax,[rbp-0x190]
    56bd:	48 89 c7             	mov    rdi,rax
    56c0:	e8 a3 fd ff ff       	call   5468 <_ZNKSt4spanIcLm18446744073709551615EE4sizeEv>
    56c5:	48 39 c3             	cmp    rbx,rax
    56c8:	0f 95 c0             	setne  al
    56cb:	84 c0                	test   al,al
    56cd:	74 1e                	je     56ed <_ZSt17vprint_nonunicodeP8_IO_FILESt17basic_string_viewIcSt11char_traitsIcEESt17basic_format_argsISt20basic_format_contextINSt8__format10_Sink_iterIcEEcEE+0x267>
    56cf:	48 8b 45 e8          	mov    rax,QWORD PTR [rbp-0x18]
    56d3:	64 48 2b 04 25 28 00 	sub    rax,QWORD PTR fs:0x28
    56da:	00 00 
    56dc:	74 05                	je     56e3 <_ZSt17vprint_nonunicodeP8_IO_FILESt17basic_string_viewIcSt11char_traitsIcEESt17basic_format_argsISt20basic_format_contextINSt8__format10_Sink_iterIcEEcEE+0x25d>
    56de:	e8 7d eb ff ff       	call   4260 <__stack_chk_fail@plt>
    56e3:	bf 05 00 00 00       	mov    edi,0x5
    56e8:	e8 83 ea ff ff       	call   4170 <_ZSt20__throw_system_errori@plt>
    56ed:	48 8d 85 a0 fe ff ff 	lea    rax,[rbp-0x160]
    56f4:	48 89 c7             	mov    rdi,rax
    56f7:	e8 cc fa ff ff       	call   51c8 <_ZNSt8__format9_Seq_sinkINSt7__cxx1112basic_stringIcSt11char_traitsIcESaIcEEEED1Ev>
    56fc:	48 8b 45 e8          	mov    rax,QWORD PTR [rbp-0x18]
    5700:	64 48 2b 04 25 28 00 	sub    rax,QWORD PTR fs:0x28
    5707:	00 00 
    5709:	74 38                	je     5743 <_ZSt17vprint_nonunicodeP8_IO_FILESt17basic_string_viewIcSt11char_traitsIcEESt17basic_format_argsISt20basic_format_contextINSt8__format10_Sink_iterIcEEcEE+0x2bd>
    570b:	eb 31                	jmp    573e <_ZSt17vprint_nonunicodeP8_IO_FILESt17basic_string_viewIcSt11char_traitsIcEESt17basic_format_argsISt20basic_format_contextINSt8__format10_Sink_iterIcEEcEE+0x2b8>
    570d:	48 89 c3             	mov    rbx,rax
    5710:	48 8d 85 a0 fe ff ff 	lea    rax,[rbp-0x160]
    5717:	48 89 c7             	mov    rdi,rax
    571a:	e8 a9 fa ff ff       	call   51c8 <_ZNSt8__format9_Seq_sinkINSt7__cxx1112basic_stringIcSt11char_traitsIcESaIcEEEED1Ev>
    571f:	48 89 d8             	mov    rax,rbx
    5722:	48 8b 55 e8          	mov    rdx,QWORD PTR [rbp-0x18]
    5726:	64 48 2b 14 25 28 00 	sub    rdx,QWORD PTR fs:0x28
    572d:	00 00 
    572f:	74 05                	je     5736 <_ZSt17vprint_nonunicodeP8_IO_FILESt17basic_string_viewIcSt11char_traitsIcEESt17basic_format_argsISt20basic_format_contextINSt8__format10_Sink_iterIcEEcEE+0x2b0>
    5731:	e8 2a eb ff ff       	call   4260 <__stack_chk_fail@plt>
    5736:	48 89 c7             	mov    rdi,rax
    5739:	e8 02 ec ff ff       	call   4340 <_Unwind_Resume@plt>
    573e:	e8 1d eb ff ff       	call   4260 <__stack_chk_fail@plt>
    5743:	48 8b 5d f8          	mov    rbx,QWORD PTR [rbp-0x8]
    5747:	c9                   	leave
    5748:	c3                   	ret

0000000000005749 <_ZSt14vprint_unicodeP8_IO_FILESt17basic_string_viewIcSt11char_traitsIcEESt17basic_format_argsISt20basic_format_contextINSt8__format10_Sink_iterIcEEcEE>:
    5749:	55                   	push   rbp
    574a:	48 89 e5             	mov    rbp,rsp
    574d:	48 83 ec 30          	sub    rsp,0x30
    5751:	48 89 7d f8          	mov    QWORD PTR [rbp-0x8],rdi
    5755:	48 89 f0             	mov    rax,rsi
    5758:	48 89 d6             	mov    rsi,rdx
    575b:	48 89 c0             	mov    rax,rax
    575e:	ba 00 00 00 00       	mov    edx,0x0
    5763:	48 89 f2             	mov    rdx,rsi
    5766:	48 89 45 e0          	mov    QWORD PTR [rbp-0x20],rax
    576a:	48 89 55 e8          	mov    QWORD PTR [rbp-0x18],rdx
    576e:	48 89 c8             	mov    rax,rcx
    5771:	4c 89 c1             	mov    rcx,r8
    5774:	48 89 c0             	mov    rax,rax
    5777:	ba 00 00 00 00       	mov    edx,0x0
    577c:	48 89 ca             	mov    rdx,rcx
    577f:	48 89 45 d0          	mov    QWORD PTR [rbp-0x30],rax
    5783:	48 89 55 d8          	mov    QWORD PTR [rbp-0x28],rdx
    5787:	48 8b 4d d0          	mov    rcx,QWORD PTR [rbp-0x30]
    578b:	48 8b 7d d8          	mov    rdi,QWORD PTR [rbp-0x28]
    578f:	48 8b 75 e0          	mov    rsi,QWORD PTR [rbp-0x20]
    5793:	48 8b 55 e8          	mov    rdx,QWORD PTR [rbp-0x18]
    5797:	48 8b 45 f8          	mov    rax,QWORD PTR [rbp-0x8]
    579b:	49 89 f8             	mov    r8,rdi
    579e:	48 89 c7             	mov    rdi,rax
    57a1:	e8 e0 fc ff ff       	call   5486 <_ZSt17vprint_nonunicodeP8_IO_FILESt17basic_string_viewIcSt11char_traitsIcEESt17basic_format_argsISt20basic_format_contextINSt8__format10_Sink_iterIcEEcEE>
    57a6:	90                   	nop
    57a7:	c9                   	leave
    57a8:	c3                   	ret
    57a9:	90                   	nop

00000000000057aa <_ZNSt17basic_string_viewIcSt11char_traitsIcEEC1EPKc>:
    57aa:	55                   	push   rbp
    57ab:	48 89 e5             	mov    rbp,rsp
    57ae:	48 83 ec 10          	sub    rsp,0x10
    57b2:	48 89 7d f8          	mov    QWORD PTR [rbp-0x8],rdi
    57b6:	48 89 75 f0          	mov    QWORD PTR [rbp-0x10],rsi
    57ba:	48 8b 45 f0          	mov    rax,QWORD PTR [rbp-0x10]
    57be:	48 89 c7             	mov    rdi,rax
    57c1:	e8 cb ee ff ff       	call   4691 <_ZNSt11char_traitsIcE6lengthEPKc>
    57c6:	48 8b 55 f8          	mov    rdx,QWORD PTR [rbp-0x8]
    57ca:	48 89 02             	mov    QWORD PTR [rdx],rax
    57cd:	48 8b 45 f8          	mov    rax,QWORD PTR [rbp-0x8]
    57d1:	48 8b 55 f0          	mov    rdx,QWORD PTR [rbp-0x10]
    57d5:	48 89 50 08          	mov    QWORD PTR [rax+0x8],rdx
    57d9:	90                   	nop
    57da:	c9                   	leave
    57db:	c3                   	ret

00000000000057dc <_ZN9__gnu_cxx11char_traitsIcE6lengthEPKc>:
    57dc:	55                   	push   rbp
    57dd:	48 89 e5             	mov    rbp,rsp
    57e0:	48 83 ec 30          	sub    rsp,0x30
    57e4:	48 89 7d d8          	mov    QWORD PTR [rbp-0x28],rdi
    57e8:	64 48 8b 04 25 28 00 	mov    rax,QWORD PTR fs:0x28
    57ef:	00 00 
    57f1:	48 89 45 f8          	mov    QWORD PTR [rbp-0x8],rax
    57f5:	31 c0                	xor    eax,eax
    57f7:	48 c7 45 f0 00 00 00 	mov    QWORD PTR [rbp-0x10],0x0
    57fe:	00 
    57ff:	eb 05                	jmp    5806 <_ZN9__gnu_cxx11char_traitsIcE6lengthEPKc+0x2a>
    5801:	48 83 45 f0 01       	add    QWORD PTR [rbp-0x10],0x1
    5806:	c6 45 ef 00          	mov    BYTE PTR [rbp-0x11],0x0
    580a:	48 8b 55 d8          	mov    rdx,QWORD PTR [rbp-0x28]
    580e:	48 8b 45 f0          	mov    rax,QWORD PTR [rbp-0x10]
    5812:	48 01 c2             	add    rdx,rax
    5815:	48 8d 45 ef          	lea    rax,[rbp-0x11]
    5819:	48 89 c6             	mov    rsi,rax
    581c:	48 89 d7             	mov    rdi,rdx
    581f:	e8 21 00 00 00       	call   5845 <_ZN9__gnu_cxx11char_traitsIcE2eqERKcS3_>
    5824:	83 f0 01             	xor    eax,0x1
    5827:	84 c0                	test   al,al
    5829:	75 d6                	jne    5801 <_ZN9__gnu_cxx11char_traitsIcE6lengthEPKc+0x25>
    582b:	48 8b 45 f0          	mov    rax,QWORD PTR [rbp-0x10]
    582f:	48 8b 55 f8          	mov    rdx,QWORD PTR [rbp-0x8]
    5833:	64 48 2b 14 25 28 00 	sub    rdx,QWORD PTR fs:0x28
    583a:	00 00 
    583c:	74 05                	je     5843 <_ZN9__gnu_cxx11char_traitsIcE6lengthEPKc+0x67>
    583e:	e8 1d ea ff ff       	call   4260 <__stack_chk_fail@plt>
    5843:	c9                   	leave
    5844:	c3                   	ret

0000000000005845 <_ZN9__gnu_cxx11char_traitsIcE2eqERKcS3_>:
    5845:	55                   	push   rbp
    5846:	48 89 e5             	mov    rbp,rsp
    5849:	48 89 7d f8          	mov    QWORD PTR [rbp-0x8],rdi
    584d:	48 89 75 f0          	mov    QWORD PTR [rbp-0x10],rsi
    5851:	48 8b 45 f8          	mov    rax,QWORD PTR [rbp-0x8]
    5855:	0f b6 10             	movzx  edx,BYTE PTR [rax]
    5858:	48 8b 45 f0          	mov    rax,QWORD PTR [rbp-0x10]
    585c:	0f b6 00             	movzx  eax,BYTE PTR [rax]
    585f:	38 c2                	cmp    dl,al
    5861:	0f 94 c0             	sete   al
    5864:	5d                   	pop    rbp
    5865:	c3                   	ret

0000000000005866 <_ZNSt8__format8_ScannerIcEC1ESt17basic_string_viewIcSt11char_traitsIcEEm>:
    5866:	55                   	push   rbp
    5867:	48 89 e5             	mov    rbp,rsp
    586a:	48 83 ec 20          	sub    rsp,0x20
    586e:	48 89 7d f8          	mov    QWORD PTR [rbp-0x8],rdi
    5872:	48 89 f0             	mov    rax,rsi
    5875:	48 89 d6             	mov    rsi,rdx
    5878:	48 89 c0             	mov    rax,rax
    587b:	ba 00 00 00 00       	mov    edx,0x0
    5880:	48 89 f2             	mov    rdx,rsi
    5883:	48 89 45 e0          	mov    QWORD PTR [rbp-0x20],rax
    5887:	48 89 55 e8          	mov    QWORD PTR [rbp-0x18],rdx
    588b:	48 89 4d f0          	mov    QWORD PTR [rbp-0x10],rcx
    588f:	48 8d 15 fa 03 02 00 	lea    rdx,[rip+0x203fa]        # 25c90 <_ZTVNSt8__format8_ScannerIcEE+0x10>
    5896:	48 8b 45 f8          	mov    rax,QWORD PTR [rbp-0x8]
    589a:	48 89 10             	mov    QWORD PTR [rax],rdx
    589d:	48 8b 45 f8          	mov    rax,QWORD PTR [rbp-0x8]
    58a1:	48 8d 78 08          	lea    rdi,[rax+0x8]
    58a5:	48 8b 4d f0          	mov    rcx,QWORD PTR [rbp-0x10]
    58a9:	48 8b 55 e0          	mov    rdx,QWORD PTR [rbp-0x20]
    58ad:	48 8b 45 e8          	mov    rax,QWORD PTR [rbp-0x18]
    58b1:	48 89 d6             	mov    rsi,rdx
    58b4:	48 89 c2             	mov    rdx,rax
    58b7:	e8 04 00 00 00       	call   58c0 <_ZNSt26basic_format_parse_contextIcEC1ESt17basic_string_viewIcSt11char_traitsIcEEm>
    58bc:	90                   	nop
    58bd:	c9                   	leave
    58be:	c3                   	ret
    58bf:	90                   	nop

00000000000058c0 <_ZNSt26basic_format_parse_contextIcEC1ESt17basic_string_viewIcSt11char_traitsIcEEm>:
    58c0:	55                   	push   rbp
    58c1:	48 89 e5             	mov    rbp,rsp
    58c4:	48 83 ec 20          	sub    rsp,0x20
    58c8:	48 89 7d f8          	mov    QWORD PTR [rbp-0x8],rdi
    58cc:	48 89 f0             	mov    rax,rsi
    58cf:	48 89 d6             	mov    rsi,rdx
    58d2:	48 89 c0             	mov    rax,rax
    58d5:	ba 00 00 00 00       	mov    edx,0x0
    58da:	48 89 f2             	mov    rdx,rsi
    58dd:	48 89 45 e0          	mov    QWORD PTR [rbp-0x20],rax
    58e1:	48 89 55 e8          	mov    QWORD PTR [rbp-0x18],rdx
    58e5:	48 89 4d f0          	mov    QWORD PTR [rbp-0x10],rcx
    58e9:	48 8d 45 e0          	lea    rax,[rbp-0x20]
    58ed:	48 89 c7             	mov    rdi,rax
    58f0:	e8 41 00 00 00       	call   5936 <_ZNKSt17basic_string_viewIcSt11char_traitsIcEE5beginEv>
    58f5:	48 8b 55 f8          	mov    rdx,QWORD PTR [rbp-0x8]
    58f9:	48 89 02             	mov    QWORD PTR [rdx],rax
    58fc:	48 8d 45 e0          	lea    rax,[rbp-0x20]
    5900:	48 89 c7             	mov    rdi,rax
    5903:	e8 40 00 00 00       	call   5948 <_ZNKSt17basic_string_viewIcSt11char_traitsIcEE3endEv>
    5908:	48 8b 55 f8          	mov    rdx,QWORD PTR [rbp-0x8]
    590c:	48 89 42 08          	mov    QWORD PTR [rdx+0x8],rax
    5910:	48 8b 45 f8          	mov    rax,QWORD PTR [rbp-0x8]
    5914:	c7 40 10 00 00 00 00 	mov    DWORD PTR [rax+0x10],0x0
    591b:	48 8b 45 f8          	mov    rax,QWORD PTR [rbp-0x8]
    591f:	48 c7 40 18 00 00 00 	mov    QWORD PTR [rax+0x18],0x0
    5926:	00 
    5927:	48 8b 45 f8          	mov    rax,QWORD PTR [rbp-0x8]
    592b:	48 8b 55 f0          	mov    rdx,QWORD PTR [rbp-0x10]
    592f:	48 89 50 20          	mov    QWORD PTR [rax+0x20],rdx
    5933:	90                   	nop
    5934:	c9                   	leave
    5935:	c3                   	ret

0000000000005936 <_ZNKSt17basic_string_viewIcSt11char_traitsIcEE5beginEv>:
    5936:	55                   	push   rbp
    5937:	48 89 e5             	mov    rbp,rsp
    593a:	48 89 7d f8          	mov    QWORD PTR [rbp-0x8],rdi
    593e:	48 8b 45 f8          	mov    rax,QWORD PTR [rbp-0x8]
    5942:	48 8b 40 08          	mov    rax,QWORD PTR [rax+0x8]
    5946:	5d                   	pop    rbp
    5947:	c3                   	ret

0000000000005948 <_ZNKSt17basic_string_viewIcSt11char_traitsIcEE3endEv>:
    5948:	55                   	push   rbp
    5949:	48 89 e5             	mov    rbp,rsp
    594c:	48 89 7d f8          	mov    QWORD PTR [rbp-0x8],rdi
    5950:	48 8b 45 f8          	mov    rax,QWORD PTR [rbp-0x8]
    5954:	48 8b 50 08          	mov    rdx,QWORD PTR [rax+0x8]
    5958:	48 8b 45 f8          	mov    rax,QWORD PTR [rbp-0x8]
    595c:	48 8b 00             	mov    rax,QWORD PTR [rax]
    595f:	48 01 d0             	add    rax,rdx
    5962:	5d                   	pop    rbp
    5963:	c3                   	ret

0000000000005964 <_ZNKSt17basic_string_viewIcSt11char_traitsIcEE4sizeEv>:
    5964:	55                   	push   rbp
    5965:	48 89 e5             	mov    rbp,rsp
    5968:	48 89 7d f8          	mov    QWORD PTR [rbp-0x8],rdi
    596c:	48 8b 45 f8          	mov    rax,QWORD PTR [rbp-0x8]
    5970:	48 8b 00             	mov    rax,QWORD PTR [rax]
    5973:	5d                   	pop    rbp
    5974:	c3                   	ret
    5975:	90                   	nop

0000000000005976 <_ZNKSt17basic_string_viewIcSt11char_traitsIcEEixEm>:
    5976:	55                   	push   rbp
    5977:	48 89 e5             	mov    rbp,rsp
    597a:	48 89 7d f8          	mov    QWORD PTR [rbp-0x8],rdi
    597e:	48 89 75 f0          	mov    QWORD PTR [rbp-0x10],rsi
    5982:	b8 00 00 00 00       	mov    eax,0x0
    5987:	84 c0                	test   al,al
    5989:	74 14                	je     599f <_ZNKSt17basic_string_viewIcSt11char_traitsIcEEixEm+0x29>
    598b:	48 8b 45 f8          	mov    rax,QWORD PTR [rbp-0x8]
    598f:	48 8b 00             	mov    rax,QWORD PTR [rax]
    5992:	48 39 45 f0          	cmp    QWORD PTR [rbp-0x10],rax
    5996:	0f 93 c0             	setae  al
    5999:	0f b6 c0             	movzx  eax,al
    599c:	48 85 c0             	test   rax,rax
    599f:	48 8b 45 f8          	mov    rax,QWORD PTR [rbp-0x8]
    59a3:	48 8b 50 08          	mov    rdx,QWORD PTR [rax+0x8]
    59a7:	48 8b 45 f0          	mov    rax,QWORD PTR [rbp-0x10]
    59ab:	48 01 d0             	add    rax,rdx
    59ae:	5d                   	pop    rbp
    59af:	c3                   	ret

00000000000059b0 <_ZNSt8__format8_ScannerIcE7_M_scanEv>:
    59b0:	55                   	push   rbp
    59b1:	48 89 e5             	mov    rbp,rsp
    59b4:	53                   	push   rbx
    59b5:	48 83 ec 68          	sub    rsp,0x68
    59b9:	48 89 7d 98          	mov    QWORD PTR [rbp-0x68],rdi
    59bd:	64 48 8b 04 25 28 00 	mov    rax,QWORD PTR fs:0x28
    59c4:	00 00 
    59c6:	48 89 45 e8          	mov    QWORD PTR [rbp-0x18],rax
    59ca:	31 c0                	xor    eax,eax
    59cc:	48 8b 45 98          	mov    rax,QWORD PTR [rbp-0x68]
    59d0:	48 89 c7             	mov    rdi,rax
    59d3:	e8 1a 04 00 00       	call   5df2 <_ZNKSt8__format8_ScannerIcE10_M_fmt_strEv>
    59d8:	48 89 45 d0          	mov    QWORD PTR [rbp-0x30],rax
    59dc:	48 89 55 d8          	mov    QWORD PTR [rbp-0x28],rdx
    59e0:	48 8d 45 d0          	lea    rax,[rbp-0x30]
    59e4:	48 89 c7             	mov    rdi,rax
    59e7:	e8 78 ff ff ff       	call   5964 <_ZNKSt17basic_string_viewIcSt11char_traitsIcEE4sizeEv>
    59ec:	48 83 f8 02          	cmp    rax,0x2
    59f0:	75 37                	jne    5a29 <_ZNSt8__format8_ScannerIcE7_M_scanEv+0x79>
    59f2:	48 8d 45 d0          	lea    rax,[rbp-0x30]
    59f6:	be 00 00 00 00       	mov    esi,0x0
    59fb:	48 89 c7             	mov    rdi,rax
    59fe:	e8 73 ff ff ff       	call   5976 <_ZNKSt17basic_string_viewIcSt11char_traitsIcEEixEm>
    5a03:	0f b6 00             	movzx  eax,BYTE PTR [rax]
    5a06:	3c 7b                	cmp    al,0x7b
    5a08:	75 1f                	jne    5a29 <_ZNSt8__format8_ScannerIcE7_M_scanEv+0x79>
    5a0a:	48 8d 45 d0          	lea    rax,[rbp-0x30]
    5a0e:	be 01 00 00 00       	mov    esi,0x1
    5a13:	48 89 c7             	mov    rdi,rax
    5a16:	e8 5b ff ff ff       	call   5976 <_ZNKSt17basic_string_viewIcSt11char_traitsIcEEixEm>
    5a1b:	0f b6 00             	movzx  eax,BYTE PTR [rax]
    5a1e:	3c 7d                	cmp    al,0x7d
    5a20:	75 07                	jne    5a29 <_ZNSt8__format8_ScannerIcE7_M_scanEv+0x79>
    5a22:	b8 01 00 00 00       	mov    eax,0x1
    5a27:	eb 05                	jmp    5a2e <_ZNSt8__format8_ScannerIcE7_M_scanEv+0x7e>
    5a29:	b8 00 00 00 00       	mov    eax,0x0
    5a2e:	84 c0                	test   al,al
    5a30:	74 55                	je     5a87 <_ZNSt8__format8_ScannerIcE7_M_scanEv+0xd7>
    5a32:	48 8b 45 98          	mov    rax,QWORD PTR [rbp-0x68]
    5a36:	48 8d 58 08          	lea    rbx,[rax+0x8]
    5a3a:	48 8b 45 98          	mov    rax,QWORD PTR [rbp-0x68]
    5a3e:	48 89 c7             	mov    rdi,rax
    5a41:	e8 18 04 00 00       	call   5e5e <_ZNKSt8__format8_ScannerIcE5beginEv>
    5a46:	48 83 c0 01          	add    rax,0x1
    5a4a:	48 89 c6             	mov    rsi,rax
    5a4d:	48 89 df             	mov    rdi,rbx
    5a50:	e8 bf 05 00 00       	call   6014 <_ZNSt26basic_format_parse_contextIcE10advance_toEPKc>
    5a55:	48 8b 45 98          	mov    rax,QWORD PTR [rbp-0x68]
    5a59:	48 8b 00             	mov    rax,QWORD PTR [rax]
    5a5c:	48 83 c0 08          	add    rax,0x8
    5a60:	48 8b 18             	mov    rbx,QWORD PTR [rax]
    5a63:	48 8b 45 98          	mov    rax,QWORD PTR [rbp-0x68]
    5a67:	48 83 c0 08          	add    rax,0x8
    5a6b:	48 89 c7             	mov    rdi,rax
    5a6e:	e8 e9 1d 00 00       	call   785c <_ZNSt26basic_format_parse_contextIcE11next_arg_idEv>
    5a73:	48 89 c2             	mov    rdx,rax
    5a76:	48 8b 45 98          	mov    rax,QWORD PTR [rbp-0x68]
    5a7a:	48 89 d6             	mov    rsi,rdx
    5a7d:	48 89 c7             	mov    rdi,rax
    5a80:	ff d3                	call   rbx
    5a82:	e9 50 03 00 00       	jmp    5dd7 <_ZNSt8__format8_ScannerIcE7_M_scanEv+0x427>
    5a87:	48 8d 45 d0          	lea    rax,[rbp-0x30]
    5a8b:	ba 00 00 00 00       	mov    edx,0x0
    5a90:	be 7b 00 00 00       	mov    esi,0x7b
    5a95:	48 89 c7             	mov    rdi,rax
    5a98:	e8 87 04 00 00       	call   5f24 <_ZNKSt17basic_string_viewIcSt11char_traitsIcEE4findEcm>
    5a9d:	48 89 45 b0          	mov    QWORD PTR [rbp-0x50],rax
    5aa1:	48 8d 45 d0          	lea    rax,[rbp-0x30]
    5aa5:	ba 00 00 00 00       	mov    edx,0x0
    5aaa:	be 7d 00 00 00       	mov    esi,0x7d
    5aaf:	48 89 c7             	mov    rdi,rax
    5ab2:	e8 6d 04 00 00       	call   5f24 <_ZNKSt17basic_string_viewIcSt11char_traitsIcEE4findEcm>
    5ab7:	48 89 45 b8          	mov    QWORD PTR [rbp-0x48],rax
    5abb:	e9 fd 02 00 00       	jmp    5dbd <_ZNSt8__format8_ScannerIcE7_M_scanEv+0x40d>
    5ac0:	48 8b 55 b0          	mov    rdx,QWORD PTR [rbp-0x50]
    5ac4:	48 8b 45 b8          	mov    rax,QWORD PTR [rbp-0x48]
    5ac8:	48 39 c2             	cmp    rdx,rax
    5acb:	74 11                	je     5ade <_ZNSt8__format8_ScannerIcE7_M_scanEv+0x12e>
    5acd:	48 39 c2             	cmp    rdx,rax
    5ad0:	73 06                	jae    5ad8 <_ZNSt8__format8_ScannerIcE7_M_scanEv+0x128>
    5ad2:	c6 45 ae ff          	mov    BYTE PTR [rbp-0x52],0xff
    5ad6:	eb 0a                	jmp    5ae2 <_ZNSt8__format8_ScannerIcE7_M_scanEv+0x132>
    5ad8:	c6 45 ae 01          	mov    BYTE PTR [rbp-0x52],0x1
    5adc:	eb 04                	jmp    5ae2 <_ZNSt8__format8_ScannerIcE7_M_scanEv+0x132>
    5ade:	c6 45 ae 00          	mov    BYTE PTR [rbp-0x52],0x0
    5ae2:	0f b6 45 ae          	movzx  eax,BYTE PTR [rbp-0x52]
    5ae6:	89 c7                	mov    edi,eax
    5ae8:	e8 c7 e9 ff ff       	call   44b4 <_ZSteqSt15strong_orderingNSt9__cmp_cat8__unspecE>
    5aed:	84 c0                	test   al,al
    5aef:	74 49                	je     5b3a <_ZNSt8__format8_ScannerIcE7_M_scanEv+0x18a>
    5af1:	48 8b 45 98          	mov    rax,QWORD PTR [rbp-0x68]
    5af5:	48 8b 00             	mov    rax,QWORD PTR [rax]
    5af8:	48 8b 18             	mov    rbx,QWORD PTR [rax]
    5afb:	48 8b 45 98          	mov    rax,QWORD PTR [rbp-0x68]
    5aff:	48 89 c7             	mov    rdi,rax
    5b02:	e8 87 03 00 00       	call   5e8e <_ZNKSt8__format8_ScannerIcE3endEv>
    5b07:	48 89 c2             	mov    rdx,rax
    5b0a:	48 8b 45 98          	mov    rax,QWORD PTR [rbp-0x68]
    5b0e:	48 89 d6             	mov    rsi,rdx
    5b11:	48 89 c7             	mov    rdi,rax
    5b14:	ff d3                	call   rbx
    5b16:	48 8b 45 98          	mov    rax,QWORD PTR [rbp-0x68]
    5b1a:	48 8d 58 08          	lea    rbx,[rax+0x8]
    5b1e:	48 8b 45 98          	mov    rax,QWORD PTR [rbp-0x68]
    5b22:	48 89 c7             	mov    rdi,rax
    5b25:	e8 64 03 00 00       	call   5e8e <_ZNKSt8__format8_ScannerIcE3endEv>
    5b2a:	48 89 c6             	mov    rsi,rax
    5b2d:	48 89 df             	mov    rdi,rbx
    5b30:	e8 df 04 00 00       	call   6014 <_ZNSt26basic_format_parse_contextIcE10advance_toEPKc>
    5b35:	e9 9d 02 00 00       	jmp    5dd7 <_ZNSt8__format8_ScannerIcE7_M_scanEv+0x427>
    5b3a:	0f b6 45 ae          	movzx  eax,BYTE PTR [rbp-0x52]
    5b3e:	89 c7                	mov    edi,eax
    5b40:	e8 82 e9 ff ff       	call   44c7 <_ZStltSt15strong_orderingNSt9__cmp_cat8__unspecE>
    5b45:	84 c0                	test   al,al
    5b47:	0f 84 85 01 00 00    	je     5cd2 <_ZNSt8__format8_ScannerIcE7_M_scanEv+0x322>
    5b4d:	48 8b 45 b0          	mov    rax,QWORD PTR [rbp-0x50]
    5b51:	48 8d 58 01          	lea    rbx,[rax+0x1]
    5b55:	48 8d 45 d0          	lea    rax,[rbp-0x30]
    5b59:	48 89 c7             	mov    rdi,rax
    5b5c:	e8 03 fe ff ff       	call   5964 <_ZNKSt17basic_string_viewIcSt11char_traitsIcEE4sizeEv>
    5b61:	48 39 c3             	cmp    rbx,rax
    5b64:	74 25                	je     5b8b <_ZNSt8__format8_ScannerIcE7_M_scanEv+0x1db>
    5b66:	48 83 7d b8 ff       	cmp    QWORD PTR [rbp-0x48],0xffffffffffffffff
    5b6b:	75 25                	jne    5b92 <_ZNSt8__format8_ScannerIcE7_M_scanEv+0x1e2>
    5b6d:	48 8b 45 b0          	mov    rax,QWORD PTR [rbp-0x50]
    5b71:	48 8d 50 01          	lea    rdx,[rax+0x1]
    5b75:	48 8d 45 d0          	lea    rax,[rbp-0x30]
    5b79:	48 89 d6             	mov    rsi,rdx
    5b7c:	48 89 c7             	mov    rdi,rax
    5b7f:	e8 f2 fd ff ff       	call   5976 <_ZNKSt17basic_string_viewIcSt11char_traitsIcEEixEm>
    5b84:	0f b6 00             	movzx  eax,BYTE PTR [rax]
    5b87:	3c 7b                	cmp    al,0x7b
    5b89:	74 07                	je     5b92 <_ZNSt8__format8_ScannerIcE7_M_scanEv+0x1e2>
    5b8b:	b8 01 00 00 00       	mov    eax,0x1
    5b90:	eb 05                	jmp    5b97 <_ZNSt8__format8_ScannerIcE7_M_scanEv+0x1e7>
    5b92:	b8 00 00 00 00       	mov    eax,0x0
    5b97:	84 c0                	test   al,al
    5b99:	74 19                	je     5bb4 <_ZNSt8__format8_ScannerIcE7_M_scanEv+0x204>
    5b9b:	48 8b 45 e8          	mov    rax,QWORD PTR [rbp-0x18]
    5b9f:	64 48 2b 04 25 28 00 	sub    rax,QWORD PTR fs:0x28
    5ba6:	00 00 
    5ba8:	74 05                	je     5baf <_ZNSt8__format8_ScannerIcE7_M_scanEv+0x1ff>
    5baa:	e8 b1 e6 ff ff       	call   4260 <__stack_chk_fail@plt>
    5baf:	e8 e4 f4 ff ff       	call   5098 <_ZNSt8__format39__unmatched_left_brace_in_format_stringEv>
    5bb4:	48 8b 45 b0          	mov    rax,QWORD PTR [rbp-0x50]
    5bb8:	48 8d 50 01          	lea    rdx,[rax+0x1]
    5bbc:	48 8d 45 d0          	lea    rax,[rbp-0x30]
    5bc0:	48 89 d6             	mov    rsi,rdx
    5bc3:	48 89 c7             	mov    rdi,rax
    5bc6:	e8 ab fd ff ff       	call   5976 <_ZNKSt17basic_string_viewIcSt11char_traitsIcEEixEm>
    5bcb:	0f b6 00             	movzx  eax,BYTE PTR [rax]
    5bce:	3c 7b                	cmp    al,0x7b
    5bd0:	0f 94 c0             	sete   al
    5bd3:	88 45 af             	mov    BYTE PTR [rbp-0x51],al
    5bd6:	48 8b 45 98          	mov    rax,QWORD PTR [rbp-0x68]
    5bda:	48 89 c7             	mov    rdi,rax
    5bdd:	e8 7c 02 00 00       	call   5e5e <_ZNKSt8__format8_ScannerIcE5beginEv>
    5be2:	0f b6 4d af          	movzx  ecx,BYTE PTR [rbp-0x51]
    5be6:	48 8b 55 b0          	mov    rdx,QWORD PTR [rbp-0x50]
    5bea:	48 01 ca             	add    rdx,rcx
    5bed:	48 01 d0             	add    rax,rdx
    5bf0:	48 89 45 c8          	mov    QWORD PTR [rbp-0x38],rax
    5bf4:	48 8b 45 98          	mov    rax,QWORD PTR [rbp-0x68]
    5bf8:	48 8b 00             	mov    rax,QWORD PTR [rax]
    5bfb:	48 8b 08             	mov    rcx,QWORD PTR [rax]
    5bfe:	48 8b 55 c8          	mov    rdx,QWORD PTR [rbp-0x38]
    5c02:	48 8b 45 98          	mov    rax,QWORD PTR [rbp-0x68]
    5c06:	48 89 d6             	mov    rsi,rdx
    5c09:	48 89 c7             	mov    rdi,rax
    5c0c:	ff d1                	call   rcx
    5c0e:	48 8b 45 98          	mov    rax,QWORD PTR [rbp-0x68]
    5c12:	48 83 c0 08          	add    rax,0x8
    5c16:	48 8b 55 c8          	mov    rdx,QWORD PTR [rbp-0x38]
    5c1a:	48 83 c2 01          	add    rdx,0x1
    5c1e:	48 89 d6             	mov    rsi,rdx
    5c21:	48 89 c7             	mov    rdi,rax
    5c24:	e8 eb 03 00 00       	call   6014 <_ZNSt26basic_format_parse_contextIcE10advance_toEPKc>
    5c29:	48 8b 45 98          	mov    rax,QWORD PTR [rbp-0x68]
    5c2d:	48 89 c7             	mov    rdi,rax
    5c30:	e8 bd 01 00 00       	call   5df2 <_ZNKSt8__format8_ScannerIcE10_M_fmt_strEv>
    5c35:	48 89 45 d0          	mov    QWORD PTR [rbp-0x30],rax
    5c39:	48 89 55 d8          	mov    QWORD PTR [rbp-0x28],rdx
    5c3d:	80 7d af 00          	cmp    BYTE PTR [rbp-0x51],0x0
    5c41:	74 36                	je     5c79 <_ZNSt8__format8_ScannerIcE7_M_scanEv+0x2c9>
    5c43:	48 83 7d b8 ff       	cmp    QWORD PTR [rbp-0x48],0xffffffffffffffff
    5c48:	74 10                	je     5c5a <_ZNSt8__format8_ScannerIcE7_M_scanEv+0x2aa>
    5c4a:	48 8b 45 b8          	mov    rax,QWORD PTR [rbp-0x48]
    5c4e:	48 2b 45 b0          	sub    rax,QWORD PTR [rbp-0x50]
    5c52:	48 83 e8 02          	sub    rax,0x2
    5c56:	48 89 45 b8          	mov    QWORD PTR [rbp-0x48],rax
    5c5a:	48 8d 45 d0          	lea    rax,[rbp-0x30]
    5c5e:	ba 00 00 00 00       	mov    edx,0x0
    5c63:	be 7b 00 00 00       	mov    esi,0x7b
    5c68:	48 89 c7             	mov    rdi,rax
    5c6b:	e8 b4 02 00 00       	call   5f24 <_ZNKSt17basic_string_viewIcSt11char_traitsIcEE4findEcm>
    5c70:	48 89 45 b0          	mov    QWORD PTR [rbp-0x50],rax
    5c74:	e9 44 01 00 00       	jmp    5dbd <_ZNSt8__format8_ScannerIcE7_M_scanEv+0x40d>
    5c79:	48 8b 45 98          	mov    rax,QWORD PTR [rbp-0x68]
    5c7d:	48 89 c7             	mov    rdi,rax
    5c80:	e8 df 1c 00 00       	call   7964 <_ZNSt8__format8_ScannerIcE23_M_on_replacement_fieldEv>
    5c85:	48 8b 45 98          	mov    rax,QWORD PTR [rbp-0x68]
    5c89:	48 89 c7             	mov    rdi,rax
    5c8c:	e8 61 01 00 00       	call   5df2 <_ZNKSt8__format8_ScannerIcE10_M_fmt_strEv>
    5c91:	48 89 45 d0          	mov    QWORD PTR [rbp-0x30],rax
    5c95:	48 89 55 d8          	mov    QWORD PTR [rbp-0x28],rdx
    5c99:	48 8d 45 d0          	lea    rax,[rbp-0x30]
    5c9d:	ba 00 00 00 00       	mov    edx,0x0
    5ca2:	be 7b 00 00 00       	mov    esi,0x7b
    5ca7:	48 89 c7             	mov    rdi,rax
    5caa:	e8 75 02 00 00       	call   5f24 <_ZNKSt17basic_string_viewIcSt11char_traitsIcEE4findEcm>
    5caf:	48 89 45 b0          	mov    QWORD PTR [rbp-0x50],rax
    5cb3:	48 8d 45 d0          	lea    rax,[rbp-0x30]
    5cb7:	ba 00 00 00 00       	mov    edx,0x0
    5cbc:	be 7d 00 00 00       	mov    esi,0x7d
    5cc1:	48 89 c7             	mov    rdi,rax
    5cc4:	e8 5b 02 00 00       	call   5f24 <_ZNKSt17basic_string_viewIcSt11char_traitsIcEE4findEcm>
    5cc9:	48 89 45 b8          	mov    QWORD PTR [rbp-0x48],rax
    5ccd:	e9 eb 00 00 00       	jmp    5dbd <_ZNSt8__format8_ScannerIcE7_M_scanEv+0x40d>
    5cd2:	48 83 45 b8 01       	add    QWORD PTR [rbp-0x48],0x1
    5cd7:	48 8d 45 d0          	lea    rax,[rbp-0x30]
    5cdb:	48 89 c7             	mov    rdi,rax
    5cde:	e8 81 fc ff ff       	call   5964 <_ZNKSt17basic_string_viewIcSt11char_traitsIcEE4sizeEv>
    5ce3:	48 39 45 b8          	cmp    QWORD PTR [rbp-0x48],rax
    5ce7:	74 1a                	je     5d03 <_ZNSt8__format8_ScannerIcE7_M_scanEv+0x353>
    5ce9:	48 8b 55 b8          	mov    rdx,QWORD PTR [rbp-0x48]
    5ced:	48 8d 45 d0          	lea    rax,[rbp-0x30]
    5cf1:	48 89 d6             	mov    rsi,rdx
    5cf4:	48 89 c7             	mov    rdi,rax
    5cf7:	e8 7a fc ff ff       	call   5976 <_ZNKSt17basic_string_viewIcSt11char_traitsIcEEixEm>
    5cfc:	0f b6 00             	movzx  eax,BYTE PTR [rax]
    5cff:	3c 7d                	cmp    al,0x7d
    5d01:	74 07                	je     5d0a <_ZNSt8__format8_ScannerIcE7_M_scanEv+0x35a>
    5d03:	b8 01 00 00 00       	mov    eax,0x1
    5d08:	eb 05                	jmp    5d0f <_ZNSt8__format8_ScannerIcE7_M_scanEv+0x35f>
    5d0a:	b8 00 00 00 00       	mov    eax,0x0
    5d0f:	84 c0                	test   al,al
    5d11:	74 19                	je     5d2c <_ZNSt8__format8_ScannerIcE7_M_scanEv+0x37c>
    5d13:	48 8b 45 e8          	mov    rax,QWORD PTR [rbp-0x18]
    5d17:	64 48 2b 04 25 28 00 	sub    rax,QWORD PTR fs:0x28
    5d1e:	00 00 
    5d20:	74 05                	je     5d27 <_ZNSt8__format8_ScannerIcE7_M_scanEv+0x377>
    5d22:	e8 39 e5 ff ff       	call   4260 <__stack_chk_fail@plt>
    5d27:	e8 7f f3 ff ff       	call   50ab <_ZNSt8__format40__unmatched_right_brace_in_format_stringEv>
    5d2c:	48 8b 45 98          	mov    rax,QWORD PTR [rbp-0x68]
    5d30:	48 89 c7             	mov    rdi,rax
    5d33:	e8 26 01 00 00       	call   5e5e <_ZNKSt8__format8_ScannerIcE5beginEv>
    5d38:	48 8b 55 b8          	mov    rdx,QWORD PTR [rbp-0x48]
    5d3c:	48 01 d0             	add    rax,rdx
    5d3f:	48 89 45 c0          	mov    QWORD PTR [rbp-0x40],rax
    5d43:	48 8b 45 98          	mov    rax,QWORD PTR [rbp-0x68]
    5d47:	48 8b 00             	mov    rax,QWORD PTR [rax]
    5d4a:	48 8b 08             	mov    rcx,QWORD PTR [rax]
    5d4d:	48 8b 55 c0          	mov    rdx,QWORD PTR [rbp-0x40]
    5d51:	48 8b 45 98          	mov    rax,QWORD PTR [rbp-0x68]
    5d55:	48 89 d6             	mov    rsi,rdx
    5d58:	48 89 c7             	mov    rdi,rax
    5d5b:	ff d1                	call   rcx
    5d5d:	48 8b 45 98          	mov    rax,QWORD PTR [rbp-0x68]
    5d61:	48 83 c0 08          	add    rax,0x8
    5d65:	48 8b 55 c0          	mov    rdx,QWORD PTR [rbp-0x40]
    5d69:	48 83 c2 01          	add    rdx,0x1
    5d6d:	48 89 d6             	mov    rsi,rdx
    5d70:	48 89 c7             	mov    rdi,rax
    5d73:	e8 9c 02 00 00       	call   6014 <_ZNSt26basic_format_parse_contextIcE10advance_toEPKc>
    5d78:	48 8b 45 98          	mov    rax,QWORD PTR [rbp-0x68]
    5d7c:	48 89 c7             	mov    rdi,rax
    5d7f:	e8 6e 00 00 00       	call   5df2 <_ZNKSt8__format8_ScannerIcE10_M_fmt_strEv>
    5d84:	48 89 45 d0          	mov    QWORD PTR [rbp-0x30],rax
    5d88:	48 89 55 d8          	mov    QWORD PTR [rbp-0x28],rdx
    5d8c:	48 83 7d b0 ff       	cmp    QWORD PTR [rbp-0x50],0xffffffffffffffff
    5d91:	74 10                	je     5da3 <_ZNSt8__format8_ScannerIcE7_M_scanEv+0x3f3>
    5d93:	48 8b 45 b0          	mov    rax,QWORD PTR [rbp-0x50]
    5d97:	48 2b 45 b8          	sub    rax,QWORD PTR [rbp-0x48]
    5d9b:	48 83 e8 01          	sub    rax,0x1
    5d9f:	48 89 45 b0          	mov    QWORD PTR [rbp-0x50],rax
    5da3:	48 8d 45 d0          	lea    rax,[rbp-0x30]
    5da7:	ba 00 00 00 00       	mov    edx,0x0
    5dac:	be 7d 00 00 00       	mov    esi,0x7d
    5db1:	48 89 c7             	mov    rdi,rax
    5db4:	e8 6b 01 00 00       	call   5f24 <_ZNKSt17basic_string_viewIcSt11char_traitsIcEE4findEcm>
    5db9:	48 89 45 b8          	mov    QWORD PTR [rbp-0x48],rax
    5dbd:	48 8d 45 d0          	lea    rax,[rbp-0x30]
    5dc1:	48 89 c7             	mov    rdi,rax
    5dc4:	e8 9b fb ff ff       	call   5964 <_ZNKSt17basic_string_viewIcSt11char_traitsIcEE4sizeEv>
    5dc9:	48 85 c0             	test   rax,rax
    5dcc:	0f 95 c0             	setne  al
    5dcf:	84 c0                	test   al,al
    5dd1:	0f 85 e9 fc ff ff    	jne    5ac0 <_ZNSt8__format8_ScannerIcE7_M_scanEv+0x110>
    5dd7:	48 8b 45 e8          	mov    rax,QWORD PTR [rbp-0x18]
    5ddb:	64 48 2b 04 25 28 00 	sub    rax,QWORD PTR fs:0x28
    5de2:	00 00 
    5de4:	74 05                	je     5deb <_ZNSt8__format8_ScannerIcE7_M_scanEv+0x43b>
    5de6:	e8 75 e4 ff ff       	call   4260 <__stack_chk_fail@plt>
    5deb:	48 8b 5d f8          	mov    rbx,QWORD PTR [rbp-0x8]
    5def:	c9                   	leave
    5df0:	c3                   	ret
    5df1:	90                   	nop

0000000000005df2 <_ZNKSt8__format8_ScannerIcE10_M_fmt_strEv>:
    5df2:	55                   	push   rbp
    5df3:	48 89 e5             	mov    rbp,rsp
    5df6:	53                   	push   rbx
    5df7:	48 83 ec 38          	sub    rsp,0x38
    5dfb:	48 89 7d c8          	mov    QWORD PTR [rbp-0x38],rdi
    5dff:	64 48 8b 04 25 28 00 	mov    rax,QWORD PTR fs:0x28
    5e06:	00 00 
    5e08:	48 89 45 e8          	mov    QWORD PTR [rbp-0x18],rax
    5e0c:	31 c0                	xor    eax,eax
    5e0e:	48 8b 45 c8          	mov    rax,QWORD PTR [rbp-0x38]
    5e12:	48 89 c7             	mov    rdi,rax
    5e15:	e8 44 00 00 00       	call   5e5e <_ZNKSt8__format8_ScannerIcE5beginEv>
    5e1a:	48 89 c3             	mov    rbx,rax
    5e1d:	48 8b 45 c8          	mov    rax,QWORD PTR [rbp-0x38]
    5e21:	48 89 c7             	mov    rdi,rax
    5e24:	e8 65 00 00 00       	call   5e8e <_ZNKSt8__format8_ScannerIcE3endEv>
    5e29:	48 89 c2             	mov    rdx,rax
    5e2c:	48 8d 45 d0          	lea    rax,[rbp-0x30]
    5e30:	48 89 de             	mov    rsi,rbx
    5e33:	48 89 c7             	mov    rdi,rax
    5e36:	e8 83 00 00 00       	call   5ebe <_ZNSt17basic_string_viewIcSt11char_traitsIcEEC1IPKcS5_EET_T0_>
    5e3b:	48 8b 45 d0          	mov    rax,QWORD PTR [rbp-0x30]
    5e3f:	48 8b 55 d8          	mov    rdx,QWORD PTR [rbp-0x28]
    5e43:	48 8b 4d e8          	mov    rcx,QWORD PTR [rbp-0x18]
    5e47:	64 48 2b 0c 25 28 00 	sub    rcx,QWORD PTR fs:0x28
    5e4e:	00 00 
    5e50:	74 05                	je     5e57 <_ZNKSt8__format8_ScannerIcE10_M_fmt_strEv+0x65>
    5e52:	e8 09 e4 ff ff       	call   4260 <__stack_chk_fail@plt>
    5e57:	48 8b 5d f8          	mov    rbx,QWORD PTR [rbp-0x8]
    5e5b:	c9                   	leave
    5e5c:	c3                   	ret
    5e5d:	90                   	nop

0000000000005e5e <_ZNKSt8__format8_ScannerIcE5beginEv>:
    5e5e:	55                   	push   rbp
    5e5f:	48 89 e5             	mov    rbp,rsp
    5e62:	48 83 ec 10          	sub    rsp,0x10
    5e66:	48 89 7d f8          	mov    QWORD PTR [rbp-0x8],rdi
    5e6a:	48 8b 45 f8          	mov    rax,QWORD PTR [rbp-0x8]
    5e6e:	48 83 c0 08          	add    rax,0x8
    5e72:	48 89 c7             	mov    rdi,rax
    5e75:	e8 02 00 00 00       	call   5e7c <_ZNKSt26basic_format_parse_contextIcE5beginEv>
    5e7a:	c9                   	leave
    5e7b:	c3                   	ret

0000000000005e7c <_ZNKSt26basic_format_parse_contextIcE5beginEv>:
    5e7c:	55                   	push   rbp
    5e7d:	48 89 e5             	mov    rbp,rsp
    5e80:	48 89 7d f8          	mov    QWORD PTR [rbp-0x8],rdi
    5e84:	48 8b 45 f8          	mov    rax,QWORD PTR [rbp-0x8]
    5e88:	48 8b 00             	mov    rax,QWORD PTR [rax]
    5e8b:	5d                   	pop    rbp
    5e8c:	c3                   	ret
    5e8d:	90                   	nop

0000000000005e8e <_ZNKSt8__format8_ScannerIcE3endEv>:
    5e8e:	55                   	push   rbp
    5e8f:	48 89 e5             	mov    rbp,rsp
    5e92:	48 83 ec 10          	sub    rsp,0x10
    5e96:	48 89 7d f8          	mov    QWORD PTR [rbp-0x8],rdi
    5e9a:	48 8b 45 f8          	mov    rax,QWORD PTR [rbp-0x8]
    5e9e:	48 83 c0 08          	add    rax,0x8
    5ea2:	48 89 c7             	mov    rdi,rax
    5ea5:	e8 02 00 00 00       	call   5eac <_ZNKSt26basic_format_parse_contextIcE3endEv>
    5eaa:	c9                   	leave
    5eab:	c3                   	ret

0000000000005eac <_ZNKSt26basic_format_parse_contextIcE3endEv>:
    5eac:	55                   	push   rbp
    5ead:	48 89 e5             	mov    rbp,rsp
    5eb0:	48 89 7d f8          	mov    QWORD PTR [rbp-0x8],rdi
    5eb4:	48 8b 45 f8          	mov    rax,QWORD PTR [rbp-0x8]
    5eb8:	48 8b 40 08          	mov    rax,QWORD PTR [rax+0x8]
    5ebc:	5d                   	pop    rbp
    5ebd:	c3                   	ret

0000000000005ebe <_ZNSt17basic_string_viewIcSt11char_traitsIcEEC1IPKcS5_EET_T0_>:
    5ebe:	55                   	push   rbp
    5ebf:	48 89 e5             	mov    rbp,rsp
    5ec2:	48 83 ec 20          	sub    rsp,0x20
    5ec6:	48 89 7d f8          	mov    QWORD PTR [rbp-0x8],rdi
    5eca:	48 89 75 f0          	mov    QWORD PTR [rbp-0x10],rsi
    5ece:	48 89 55 e8          	mov    QWORD PTR [rbp-0x18],rdx
    5ed2:	48 8b 45 e8          	mov    rax,QWORD PTR [rbp-0x18]
    5ed6:	48 2b 45 f0          	sub    rax,QWORD PTR [rbp-0x10]
    5eda:	48 89 c2             	mov    rdx,rax
    5edd:	48 8b 45 f8          	mov    rax,QWORD PTR [rbp-0x8]
    5ee1:	48 89 10             	mov    QWORD PTR [rax],rdx
    5ee4:	48 8b 45 f0          	mov    rax,QWORD PTR [rbp-0x10]
    5ee8:	48 89 c7             	mov    rdi,rax
    5eeb:	e8 0b 00 00 00       	call   5efb <_ZSt10to_addressIKcEPT_S2_>
    5ef0:	48 8b 55 f8          	mov    rdx,QWORD PTR [rbp-0x8]
    5ef4:	48 89 42 08          	mov    QWORD PTR [rdx+0x8],rax
    5ef8:	90                   	nop
    5ef9:	c9                   	leave
    5efa:	c3                   	ret

0000000000005efb <_ZSt10to_addressIKcEPT_S2_>:
    5efb:	55                   	push   rbp
    5efc:	48 89 e5             	mov    rbp,rsp
    5eff:	48 83 ec 10          	sub    rsp,0x10
    5f03:	48 89 7d f8          	mov    QWORD PTR [rbp-0x8],rdi
    5f07:	48 8b 45 f8          	mov    rax,QWORD PTR [rbp-0x8]
    5f0b:	48 89 c7             	mov    rdi,rax
    5f0e:	e8 02 00 00 00       	call   5f15 <_ZSt12__to_addressIKcEPT_S2_>
    5f13:	c9                   	leave
    5f14:	c3                   	ret

0000000000005f15 <_ZSt12__to_addressIKcEPT_S2_>:
    5f15:	55                   	push   rbp
    5f16:	48 89 e5             	mov    rbp,rsp
    5f19:	48 89 7d f8          	mov    QWORD PTR [rbp-0x8],rdi
    5f1d:	48 8b 45 f8          	mov    rax,QWORD PTR [rbp-0x8]
    5f21:	5d                   	pop    rbp
    5f22:	c3                   	ret
    5f23:	90                   	nop

0000000000005f24 <_ZNKSt17basic_string_viewIcSt11char_traitsIcEE4findEcm>:
    5f24:	55                   	push   rbp
    5f25:	48 89 e5             	mov    rbp,rsp
    5f28:	48 83 ec 40          	sub    rsp,0x40
    5f2c:	48 89 7d d8          	mov    QWORD PTR [rbp-0x28],rdi
    5f30:	89 f0                	mov    eax,esi
    5f32:	48 89 55 c8          	mov    QWORD PTR [rbp-0x38],rdx
    5f36:	88 45 d4             	mov    BYTE PTR [rbp-0x2c],al
    5f39:	48 c7 45 e8 ff ff ff 	mov    QWORD PTR [rbp-0x18],0xffffffffffffffff
    5f40:	ff 
    5f41:	48 8b 45 d8          	mov    rax,QWORD PTR [rbp-0x28]
    5f45:	48 8b 00             	mov    rax,QWORD PTR [rax]
    5f48:	48 39 45 c8          	cmp    QWORD PTR [rbp-0x38],rax
    5f4c:	73 50                	jae    5f9e <_ZNKSt17basic_string_viewIcSt11char_traitsIcEE4findEcm+0x7a>
    5f4e:	48 8b 45 d8          	mov    rax,QWORD PTR [rbp-0x28]
    5f52:	48 8b 00             	mov    rax,QWORD PTR [rax]
    5f55:	48 2b 45 c8          	sub    rax,QWORD PTR [rbp-0x38]
    5f59:	48 89 45 f0          	mov    QWORD PTR [rbp-0x10],rax
    5f5d:	48 8b 45 d8          	mov    rax,QWORD PTR [rbp-0x28]
    5f61:	48 8b 50 08          	mov    rdx,QWORD PTR [rax+0x8]
    5f65:	48 8b 45 c8          	mov    rax,QWORD PTR [rbp-0x38]
    5f69:	48 8d 0c 02          	lea    rcx,[rdx+rax*1]
    5f6d:	48 8d 55 d4          	lea    rdx,[rbp-0x2c]
    5f71:	48 8b 45 f0          	mov    rax,QWORD PTR [rbp-0x10]
    5f75:	48 89 c6             	mov    rsi,rax
    5f78:	48 89 cf             	mov    rdi,rcx
    5f7b:	e8 43 e7 ff ff       	call   46c3 <_ZNSt11char_traitsIcE4findEPKcmRS1_>
    5f80:	48 89 45 f8          	mov    QWORD PTR [rbp-0x8],rax
    5f84:	48 83 7d f8 00       	cmp    QWORD PTR [rbp-0x8],0x0
    5f89:	74 13                	je     5f9e <_ZNKSt17basic_string_viewIcSt11char_traitsIcEE4findEcm+0x7a>
    5f8b:	48 8b 45 d8          	mov    rax,QWORD PTR [rbp-0x28]
    5f8f:	48 8b 40 08          	mov    rax,QWORD PTR [rax+0x8]
    5f93:	48 8b 55 f8          	mov    rdx,QWORD PTR [rbp-0x8]
    5f97:	48 29 c2             	sub    rdx,rax
    5f9a:	48 89 55 e8          	mov    QWORD PTR [rbp-0x18],rdx
    5f9e:	48 8b 45 e8          	mov    rax,QWORD PTR [rbp-0x18]
    5fa2:	c9                   	leave
    5fa3:	c3                   	ret

0000000000005fa4 <_ZN9__gnu_cxx11char_traitsIcE4findEPKcmRS2_>:
    5fa4:	55                   	push   rbp
    5fa5:	48 89 e5             	mov    rbp,rsp
    5fa8:	48 83 ec 30          	sub    rsp,0x30
    5fac:	48 89 7d e8          	mov    QWORD PTR [rbp-0x18],rdi
    5fb0:	48 89 75 e0          	mov    QWORD PTR [rbp-0x20],rsi
    5fb4:	48 89 55 d8          	mov    QWORD PTR [rbp-0x28],rdx
    5fb8:	48 c7 45 f8 00 00 00 	mov    QWORD PTR [rbp-0x8],0x0
    5fbf:	00 
    5fc0:	eb 30                	jmp    5ff2 <_ZN9__gnu_cxx11char_traitsIcE4findEPKcmRS2_+0x4e>
    5fc2:	48 8b 55 e8          	mov    rdx,QWORD PTR [rbp-0x18]
    5fc6:	48 8b 45 f8          	mov    rax,QWORD PTR [rbp-0x8]
    5fca:	48 01 c2             	add    rdx,rax
    5fcd:	48 8b 45 d8          	mov    rax,QWORD PTR [rbp-0x28]
    5fd1:	48 89 c6             	mov    rsi,rax
    5fd4:	48 89 d7             	mov    rdi,rdx
    5fd7:	e8 69 f8 ff ff       	call   5845 <_ZN9__gnu_cxx11char_traitsIcE2eqERKcS3_>
    5fdc:	84 c0                	test   al,al
    5fde:	74 0d                	je     5fed <_ZN9__gnu_cxx11char_traitsIcE4findEPKcmRS2_+0x49>
    5fe0:	48 8b 55 e8          	mov    rdx,QWORD PTR [rbp-0x18]
    5fe4:	48 8b 45 f8          	mov    rax,QWORD PTR [rbp-0x8]
    5fe8:	48 01 d0             	add    rax,rdx
    5feb:	eb 14                	jmp    6001 <_ZN9__gnu_cxx11char_traitsIcE4findEPKcmRS2_+0x5d>
    5fed:	48 83 45 f8 01       	add    QWORD PTR [rbp-0x8],0x1
    5ff2:	48 8b 45 f8          	mov    rax,QWORD PTR [rbp-0x8]
    5ff6:	48 3b 45 e0          	cmp    rax,QWORD PTR [rbp-0x20]
    5ffa:	72 c6                	jb     5fc2 <_ZN9__gnu_cxx11char_traitsIcE4findEPKcmRS2_+0x1e>
    5ffc:	b8 00 00 00 00       	mov    eax,0x0
    6001:	c9                   	leave
    6002:	c3                   	ret
    6003:	90                   	nop

0000000000006004 <_ZNSt8__format8_ScannerIcE11_M_on_charsEPKc>:
    6004:	55                   	push   rbp
    6005:	48 89 e5             	mov    rbp,rsp
    6008:	48 89 7d f8          	mov    QWORD PTR [rbp-0x8],rdi
    600c:	48 89 75 f0          	mov    QWORD PTR [rbp-0x10],rsi
    6010:	90                   	nop
    6011:	5d                   	pop    rbp
    6012:	c3                   	ret
    6013:	90                   	nop

0000000000006014 <_ZNSt26basic_format_parse_contextIcE10advance_toEPKc>:
    6014:	55                   	push   rbp
    6015:	48 89 e5             	mov    rbp,rsp
    6018:	48 89 7d f8          	mov    QWORD PTR [rbp-0x8],rdi
    601c:	48 89 75 f0          	mov    QWORD PTR [rbp-0x10],rsi
    6020:	48 8b 45 f8          	mov    rax,QWORD PTR [rbp-0x8]
    6024:	48 8b 55 f0          	mov    rdx,QWORD PTR [rbp-0x10]
    6028:	48 89 10             	mov    QWORD PTR [rax],rdx
    602b:	90                   	nop
    602c:	5d                   	pop    rbp
    602d:	c3                   	ret

000000000000602e <_Z4funcv>:
    602e:	55                   	push   rbp
    602f:	48 89 e5             	mov    rbp,rsp
    6032:	b8 05 00 00 00       	mov    eax,0x5
    6037:	48 8d 15 04 61 01 00 	lea    rdx,[rip+0x16104]        # 1c142 <_ZNSt6ranges4_Cpo4dataE+0x13a>
    603e:	48 89 c1             	mov    rcx,rax
    6041:	48 89 d0             	mov    rax,rdx
    6044:	48 89 cf             	mov    rdi,rcx
    6047:	48 89 c6             	mov    rsi,rax
    604a:	e8 ce 17 00 00       	call   781d <_ZSt7printlnIJEEvSt19basic_format_stringIcJDpNSt13type_identityIT_E4typeEEEDpOS2_>
    604f:	b8 01 00 00 00       	mov    eax,0x1
    6054:	5d                   	pop    rbp
    6055:	c3                   	ret

0000000000006056 <_ZSt12__to_chars_iIhESt15to_chars_resultPcS1_T_i>:
    6056:	55                   	push   rbp
    6057:	48 89 e5             	mov    rbp,rsp
    605a:	48 83 ec 30          	sub    rsp,0x30
    605e:	48 89 7d e8          	mov    QWORD PTR [rbp-0x18],rdi
    6062:	48 89 75 e0          	mov    QWORD PTR [rbp-0x20],rsi
    6066:	89 d0                	mov    eax,edx
    6068:	89 4d d8             	mov    DWORD PTR [rbp-0x28],ecx
    606b:	88 45 dc             	mov    BYTE PTR [rbp-0x24],al
    606e:	b8 00 00 00 00       	mov    eax,0x0
    6073:	84 c0                	test   al,al
    6075:	74 30                	je     60a7 <_ZSt12__to_chars_iIhESt15to_chars_resultPcS1_T_i+0x51>
    6077:	83 7d d8 01          	cmp    DWORD PTR [rbp-0x28],0x1
    607b:	0f 9e c0             	setle  al
    607e:	0f b6 c0             	movzx  eax,al
    6081:	48 85 c0             	test   rax,rax
    6084:	75 0f                	jne    6095 <_ZSt12__to_chars_iIhESt15to_chars_resultPcS1_T_i+0x3f>
    6086:	83 7d d8 24          	cmp    DWORD PTR [rbp-0x28],0x24
    608a:	0f 9f c0             	setg   al
    608d:	0f b6 c0             	movzx  eax,al
    6090:	48 85 c0             	test   rax,rax
    6093:	74 07                	je     609c <_ZSt12__to_chars_iIhESt15to_chars_resultPcS1_T_i+0x46>
    6095:	b8 01 00 00 00       	mov    eax,0x1
    609a:	eb 05                	jmp    60a1 <_ZSt12__to_chars_iIhESt15to_chars_resultPcS1_T_i+0x4b>
    609c:	b8 00 00 00 00       	mov    eax,0x0
    60a1:	0f b6 c0             	movzx  eax,al
    60a4:	48 85 c0             	test   rax,rax
    60a7:	0f b6 45 dc          	movzx  eax,BYTE PTR [rbp-0x24]
    60ab:	89 45 fc             	mov    DWORD PTR [rbp-0x4],eax
    60ae:	48 8b 45 e8          	mov    rax,QWORD PTR [rbp-0x18]
    60b2:	48 3b 45 e0          	cmp    rax,QWORD PTR [rbp-0x20]
    60b6:	75 20                	jne    60d8 <_ZSt12__to_chars_iIhESt15to_chars_resultPcS1_T_i+0x82>
    60b8:	4c 8b 45 e0          	mov    r8,QWORD PTR [rbp-0x20]
    60bc:	4c 89 ca             	mov    rdx,r9
    60bf:	48 b8 00 00 00 00 ff 	movabs rax,0xffffffff00000000
    60c6:	ff ff ff 
    60c9:	48 21 d0             	and    rax,rdx
    60cc:	48 83 c8 4b          	or     rax,0x4b
    60d0:	49 89 c1             	mov    r9,rax
    60d3:	e9 f3 00 00 00       	jmp    61cb <_ZSt12__to_chars_iIhESt15to_chars_resultPcS1_T_i+0x175>
    60d8:	80 7d dc 00          	cmp    BYTE PTR [rbp-0x24],0x0
    60dc:	75 2a                	jne    6108 <_ZSt12__to_chars_iIhESt15to_chars_resultPcS1_T_i+0xb2>
    60de:	48 8b 45 e8          	mov    rax,QWORD PTR [rbp-0x18]
    60e2:	c6 00 30             	mov    BYTE PTR [rax],0x30
    60e5:	48 8b 45 e8          	mov    rax,QWORD PTR [rbp-0x18]
    60e9:	48 83 c0 01          	add    rax,0x1
    60ed:	49 89 c0             	mov    r8,rax
    60f0:	4c 89 ca             	mov    rdx,r9
    60f3:	48 b8 00 00 00 00 ff 	movabs rax,0xffffffff00000000
    60fa:	ff ff ff 
    60fd:	48 21 d0             	and    rax,rdx
    6100:	49 89 c1             	mov    r9,rax
    6103:	e9 c3 00 00 00       	jmp    61cb <_ZSt12__to_chars_iIhESt15to_chars_resultPcS1_T_i+0x175>
    6108:	83 7d d8 10          	cmp    DWORD PTR [rbp-0x28],0x10
    610c:	74 28                	je     6136 <_ZSt12__to_chars_iIhESt15to_chars_resultPcS1_T_i+0xe0>
    610e:	83 7d d8 10          	cmp    DWORD PTR [rbp-0x28],0x10
    6112:	0f 8f 96 00 00 00    	jg     61ae <_ZSt12__to_chars_iIhESt15to_chars_resultPcS1_T_i+0x158>
    6118:	83 7d d8 0a          	cmp    DWORD PTR [rbp-0x28],0xa
    611c:	74 36                	je     6154 <_ZSt12__to_chars_iIhESt15to_chars_resultPcS1_T_i+0xfe>
    611e:	83 7d d8 0a          	cmp    DWORD PTR [rbp-0x28],0xa
    6122:	0f 8f 86 00 00 00    	jg     61ae <_ZSt12__to_chars_iIhESt15to_chars_resultPcS1_T_i+0x158>
    6128:	83 7d d8 02          	cmp    DWORD PTR [rbp-0x28],0x2
    612c:	74 62                	je     6190 <_ZSt12__to_chars_iIhESt15to_chars_resultPcS1_T_i+0x13a>
    612e:	83 7d d8 08          	cmp    DWORD PTR [rbp-0x28],0x8
    6132:	74 3e                	je     6172 <_ZSt12__to_chars_iIhESt15to_chars_resultPcS1_T_i+0x11c>
    6134:	eb 78                	jmp    61ae <_ZSt12__to_chars_iIhESt15to_chars_resultPcS1_T_i+0x158>
    6136:	8b 55 fc             	mov    edx,DWORD PTR [rbp-0x4]
    6139:	48 8b 4d e0          	mov    rcx,QWORD PTR [rbp-0x20]
    613d:	48 8b 45 e8          	mov    rax,QWORD PTR [rbp-0x18]
    6141:	48 89 ce             	mov    rsi,rcx
    6144:	48 89 c7             	mov    rdi,rax
    6147:	e8 85 1a 00 00       	call   7bd1 <_ZNSt8__detail13__to_chars_16IjEESt15to_chars_resultPcS2_T_>
    614c:	49 89 c0             	mov    r8,rax
    614f:	49 89 d1             	mov    r9,rdx
    6152:	eb 77                	jmp    61cb <_ZSt12__to_chars_iIhESt15to_chars_resultPcS1_T_i+0x175>
    6154:	8b 55 fc             	mov    edx,DWORD PTR [rbp-0x4]
    6157:	48 8b 4d e0          	mov    rcx,QWORD PTR [rbp-0x20]
    615b:	48 8b 45 e8          	mov    rax,QWORD PTR [rbp-0x18]
    615f:	48 89 ce             	mov    rsi,rcx
    6162:	48 89 c7             	mov    rdi,rax
    6165:	e8 c5 1b 00 00       	call   7d2f <_ZNSt8__detail13__to_chars_10IjEESt15to_chars_resultPcS2_T_>
    616a:	49 89 c0             	mov    r8,rax
    616d:	49 89 d1             	mov    r9,rdx
    6170:	eb 59                	jmp    61cb <_ZSt12__to_chars_iIhESt15to_chars_resultPcS1_T_i+0x175>
    6172:	8b 55 fc             	mov    edx,DWORD PTR [rbp-0x4]
    6175:	48 8b 4d e0          	mov    rcx,QWORD PTR [rbp-0x20]
    6179:	48 8b 45 e8          	mov    rax,QWORD PTR [rbp-0x18]
    617d:	48 89 ce             	mov    rsi,rcx
    6180:	48 89 c7             	mov    rdi,rax
    6183:	e8 57 1c 00 00       	call   7ddf <_ZNSt8__detail12__to_chars_8IjEESt15to_chars_resultPcS2_T_>
    6188:	49 89 c0             	mov    r8,rax
    618b:	49 89 d1             	mov    r9,rdx
    618e:	eb 3b                	jmp    61cb <_ZSt12__to_chars_iIhESt15to_chars_resultPcS1_T_i+0x175>
    6190:	8b 55 fc             	mov    edx,DWORD PTR [rbp-0x4]
    6193:	48 8b 4d e0          	mov    rcx,QWORD PTR [rbp-0x20]
    6197:	48 8b 45 e8          	mov    rax,QWORD PTR [rbp-0x18]
    619b:	48 89 ce             	mov    rsi,rcx
    619e:	48 89 c7             	mov    rdi,rax
    61a1:	e8 89 1d 00 00       	call   7f2f <_ZNSt8__detail12__to_chars_2IjEESt15to_chars_resultPcS2_T_>
    61a6:	49 89 c0             	mov    r8,rax
    61a9:	49 89 d1             	mov    r9,rdx
    61ac:	eb 1d                	jmp    61cb <_ZSt12__to_chars_iIhESt15to_chars_resultPcS1_T_i+0x175>
    61ae:	8b 4d d8             	mov    ecx,DWORD PTR [rbp-0x28]
    61b1:	8b 55 fc             	mov    edx,DWORD PTR [rbp-0x4]
    61b4:	48 8b 75 e0          	mov    rsi,QWORD PTR [rbp-0x20]
    61b8:	48 8b 45 e8          	mov    rax,QWORD PTR [rbp-0x18]
    61bc:	48 89 c7             	mov    rdi,rax
    61bf:	e8 3d 1e 00 00       	call   8001 <_ZNSt8__detail10__to_charsIjEESt15to_chars_resultPcS2_T_i>
    61c4:	49 89 c0             	mov    r8,rax
    61c7:	49 89 d1             	mov    r9,rdx
    61ca:	90                   	nop
    61cb:	4c 89 c0             	mov    rax,r8
    61ce:	4c 89 ca             	mov    rdx,r9
    61d1:	c9                   	leave
    61d2:	c3                   	ret

00000000000061d3 <_ZSt12__to_chars_iIjESt15to_chars_resultPcS1_T_i>:
    61d3:	55                   	push   rbp
    61d4:	48 89 e5             	mov    rbp,rsp
    61d7:	48 83 ec 30          	sub    rsp,0x30
    61db:	48 89 7d e8          	mov    QWORD PTR [rbp-0x18],rdi
    61df:	48 89 75 e0          	mov    QWORD PTR [rbp-0x20],rsi
    61e3:	89 55 dc             	mov    DWORD PTR [rbp-0x24],edx
    61e6:	89 4d d8             	mov    DWORD PTR [rbp-0x28],ecx
    61e9:	b8 00 00 00 00       	mov    eax,0x0
    61ee:	84 c0                	test   al,al
    61f0:	74 30                	je     6222 <_ZSt12__to_chars_iIjESt15to_chars_resultPcS1_T_i+0x4f>
    61f2:	83 7d d8 01          	cmp    DWORD PTR [rbp-0x28],0x1
    61f6:	0f 9e c0             	setle  al
    61f9:	0f b6 c0             	movzx  eax,al
    61fc:	48 85 c0             	test   rax,rax
    61ff:	75 0f                	jne    6210 <_ZSt12__to_chars_iIjESt15to_chars_resultPcS1_T_i+0x3d>
    6201:	83 7d d8 24          	cmp    DWORD PTR [rbp-0x28],0x24
    6205:	0f 9f c0             	setg   al
    6208:	0f b6 c0             	movzx  eax,al
    620b:	48 85 c0             	test   rax,rax
    620e:	74 07                	je     6217 <_ZSt12__to_chars_iIjESt15to_chars_resultPcS1_T_i+0x44>
    6210:	b8 01 00 00 00       	mov    eax,0x1
    6215:	eb 05                	jmp    621c <_ZSt12__to_chars_iIjESt15to_chars_resultPcS1_T_i+0x49>
    6217:	b8 00 00 00 00       	mov    eax,0x0
    621c:	0f b6 c0             	movzx  eax,al
    621f:	48 85 c0             	test   rax,rax
    6222:	8b 45 dc             	mov    eax,DWORD PTR [rbp-0x24]
    6225:	89 45 fc             	mov    DWORD PTR [rbp-0x4],eax
    6228:	48 8b 45 e8          	mov    rax,QWORD PTR [rbp-0x18]
    622c:	48 3b 45 e0          	cmp    rax,QWORD PTR [rbp-0x20]
    6230:	75 20                	jne    6252 <_ZSt12__to_chars_iIjESt15to_chars_resultPcS1_T_i+0x7f>
    6232:	4c 8b 45 e0          	mov    r8,QWORD PTR [rbp-0x20]
    6236:	4c 89 ca             	mov    rdx,r9
    6239:	48 b8 00 00 00 00 ff 	movabs rax,0xffffffff00000000
    6240:	ff ff ff 
    6243:	48 21 d0             	and    rax,rdx
    6246:	48 83 c8 4b          	or     rax,0x4b
    624a:	49 89 c1             	mov    r9,rax
    624d:	e9 f3 00 00 00       	jmp    6345 <_ZSt12__to_chars_iIjESt15to_chars_resultPcS1_T_i+0x172>
    6252:	83 7d dc 00          	cmp    DWORD PTR [rbp-0x24],0x0
    6256:	75 2a                	jne    6282 <_ZSt12__to_chars_iIjESt15to_chars_resultPcS1_T_i+0xaf>
    6258:	48 8b 45 e8          	mov    rax,QWORD PTR [rbp-0x18]
    625c:	c6 00 30             	mov    BYTE PTR [rax],0x30
    625f:	48 8b 45 e8          	mov    rax,QWORD PTR [rbp-0x18]
    6263:	48 83 c0 01          	add    rax,0x1
    6267:	49 89 c0             	mov    r8,rax
    626a:	4c 89 ca             	mov    rdx,r9
    626d:	48 b8 00 00 00 00 ff 	movabs rax,0xffffffff00000000
    6274:	ff ff ff 
    6277:	48 21 d0             	and    rax,rdx
    627a:	49 89 c1             	mov    r9,rax
    627d:	e9 c3 00 00 00       	jmp    6345 <_ZSt12__to_chars_iIjESt15to_chars_resultPcS1_T_i+0x172>
    6282:	83 7d d8 10          	cmp    DWORD PTR [rbp-0x28],0x10
    6286:	74 28                	je     62b0 <_ZSt12__to_chars_iIjESt15to_chars_resultPcS1_T_i+0xdd>
    6288:	83 7d d8 10          	cmp    DWORD PTR [rbp-0x28],0x10
    628c:	0f 8f 96 00 00 00    	jg     6328 <_ZSt12__to_chars_iIjESt15to_chars_resultPcS1_T_i+0x155>
    6292:	83 7d d8 0a          	cmp    DWORD PTR [rbp-0x28],0xa
    6296:	74 36                	je     62ce <_ZSt12__to_chars_iIjESt15to_chars_resultPcS1_T_i+0xfb>
    6298:	83 7d d8 0a          	cmp    DWORD PTR [rbp-0x28],0xa
    629c:	0f 8f 86 00 00 00    	jg     6328 <_ZSt12__to_chars_iIjESt15to_chars_resultPcS1_T_i+0x155>
    62a2:	83 7d d8 02          	cmp    DWORD PTR [rbp-0x28],0x2
    62a6:	74 62                	je     630a <_ZSt12__to_chars_iIjESt15to_chars_resultPcS1_T_i+0x137>
    62a8:	83 7d d8 08          	cmp    DWORD PTR [rbp-0x28],0x8
    62ac:	74 3e                	je     62ec <_ZSt12__to_chars_iIjESt15to_chars_resultPcS1_T_i+0x119>
    62ae:	eb 78                	jmp    6328 <_ZSt12__to_chars_iIjESt15to_chars_resultPcS1_T_i+0x155>
    62b0:	8b 55 fc             	mov    edx,DWORD PTR [rbp-0x4]
    62b3:	48 8b 4d e0          	mov    rcx,QWORD PTR [rbp-0x20]
    62b7:	48 8b 45 e8          	mov    rax,QWORD PTR [rbp-0x18]
    62bb:	48 89 ce             	mov    rsi,rcx
    62be:	48 89 c7             	mov    rdi,rax
    62c1:	e8 0b 19 00 00       	call   7bd1 <_ZNSt8__detail13__to_chars_16IjEESt15to_chars_resultPcS2_T_>
    62c6:	49 89 c0             	mov    r8,rax
    62c9:	49 89 d1             	mov    r9,rdx
    62cc:	eb 77                	jmp    6345 <_ZSt12__to_chars_iIjESt15to_chars_resultPcS1_T_i+0x172>
    62ce:	8b 55 fc             	mov    edx,DWORD PTR [rbp-0x4]
    62d1:	48 8b 4d e0          	mov    rcx,QWORD PTR [rbp-0x20]
    62d5:	48 8b 45 e8          	mov    rax,QWORD PTR [rbp-0x18]
    62d9:	48 89 ce             	mov    rsi,rcx
    62dc:	48 89 c7             	mov    rdi,rax
    62df:	e8 4b 1a 00 00       	call   7d2f <_ZNSt8__detail13__to_chars_10IjEESt15to_chars_resultPcS2_T_>
    62e4:	49 89 c0             	mov    r8,rax
    62e7:	49 89 d1             	mov    r9,rdx
    62ea:	eb 59                	jmp    6345 <_ZSt12__to_chars_iIjESt15to_chars_resultPcS1_T_i+0x172>
    62ec:	8b 55 fc             	mov    edx,DWORD PTR [rbp-0x4]
    62ef:	48 8b 4d e0          	mov    rcx,QWORD PTR [rbp-0x20]
    62f3:	48 8b 45 e8          	mov    rax,QWORD PTR [rbp-0x18]
    62f7:	48 89 ce             	mov    rsi,rcx
    62fa:	48 89 c7             	mov    rdi,rax
    62fd:	e8 dd 1a 00 00       	call   7ddf <_ZNSt8__detail12__to_chars_8IjEESt15to_chars_resultPcS2_T_>
    6302:	49 89 c0             	mov    r8,rax
    6305:	49 89 d1             	mov    r9,rdx
    6308:	eb 3b                	jmp    6345 <_ZSt12__to_chars_iIjESt15to_chars_resultPcS1_T_i+0x172>
    630a:	8b 55 fc             	mov    edx,DWORD PTR [rbp-0x4]
    630d:	48 8b 4d e0          	mov    rcx,QWORD PTR [rbp-0x20]
    6311:	48 8b 45 e8          	mov    rax,QWORD PTR [rbp-0x18]
    6315:	48 89 ce             	mov    rsi,rcx
    6318:	48 89 c7             	mov    rdi,rax
    631b:	e8 0f 1c 00 00       	call   7f2f <_ZNSt8__detail12__to_chars_2IjEESt15to_chars_resultPcS2_T_>
    6320:	49 89 c0             	mov    r8,rax
    6323:	49 89 d1             	mov    r9,rdx
    6326:	eb 1d                	jmp    6345 <_ZSt12__to_chars_iIjESt15to_chars_resultPcS1_T_i+0x172>
    6328:	8b 4d d8             	mov    ecx,DWORD PTR [rbp-0x28]
    632b:	8b 55 fc             	mov    edx,DWORD PTR [rbp-0x4]
    632e:	48 8b 75 e0          	mov    rsi,QWORD PTR [rbp-0x20]
    6332:	48 8b 45 e8          	mov    rax,QWORD PTR [rbp-0x18]
    6336:	48 89 c7             	mov    rdi,rax
    6339:	e8 c3 1c 00 00       	call   8001 <_ZNSt8__detail10__to_charsIjEESt15to_chars_resultPcS2_T_i>
    633e:	49 89 c0             	mov    r8,rax
    6341:	49 89 d1             	mov    r9,rdx
    6344:	90                   	nop
    6345:	4c 89 c0             	mov    rax,r8
    6348:	4c 89 ca             	mov    rdx,r9
    634b:	c9                   	leave
    634c:	c3                   	ret

000000000000634d <_ZSt12__to_chars_iImESt15to_chars_resultPcS1_T_i>:
    634d:	55                   	push   rbp
    634e:	48 89 e5             	mov    rbp,rsp
    6351:	48 83 ec 30          	sub    rsp,0x30
    6355:	48 89 7d e8          	mov    QWORD PTR [rbp-0x18],rdi
    6359:	48 89 75 e0          	mov    QWORD PTR [rbp-0x20],rsi
    635d:	48 89 55 d8          	mov    QWORD PTR [rbp-0x28],rdx
    6361:	89 4d d4             	mov    DWORD PTR [rbp-0x2c],ecx
    6364:	b8 00 00 00 00       	mov    eax,0x0
    6369:	84 c0                	test   al,al
    636b:	74 30                	je     639d <_ZSt12__to_chars_iImESt15to_chars_resultPcS1_T_i+0x50>
    636d:	83 7d d4 01          	cmp    DWORD PTR [rbp-0x2c],0x1
    6371:	0f 9e c0             	setle  al
    6374:	0f b6 c0             	movzx  eax,al
    6377:	48 85 c0             	test   rax,rax
    637a:	75 0f                	jne    638b <_ZSt12__to_chars_iImESt15to_chars_resultPcS1_T_i+0x3e>
    637c:	83 7d d4 24          	cmp    DWORD PTR [rbp-0x2c],0x24
    6380:	0f 9f c0             	setg   al
    6383:	0f b6 c0             	movzx  eax,al
    6386:	48 85 c0             	test   rax,rax
    6389:	74 07                	je     6392 <_ZSt12__to_chars_iImESt15to_chars_resultPcS1_T_i+0x45>
    638b:	b8 01 00 00 00       	mov    eax,0x1
    6390:	eb 05                	jmp    6397 <_ZSt12__to_chars_iImESt15to_chars_resultPcS1_T_i+0x4a>
    6392:	b8 00 00 00 00       	mov    eax,0x0
    6397:	0f b6 c0             	movzx  eax,al
    639a:	48 85 c0             	test   rax,rax
    639d:	48 8b 45 d8          	mov    rax,QWORD PTR [rbp-0x28]
    63a1:	48 89 45 f8          	mov    QWORD PTR [rbp-0x8],rax
    63a5:	48 8b 45 e8          	mov    rax,QWORD PTR [rbp-0x18]
    63a9:	48 3b 45 e0          	cmp    rax,QWORD PTR [rbp-0x20]
    63ad:	75 20                	jne    63cf <_ZSt12__to_chars_iImESt15to_chars_resultPcS1_T_i+0x82>
    63af:	4c 8b 45 e0          	mov    r8,QWORD PTR [rbp-0x20]
    63b3:	4c 89 ca             	mov    rdx,r9
    63b6:	48 b8 00 00 00 00 ff 	movabs rax,0xffffffff00000000
    63bd:	ff ff ff 
    63c0:	48 21 d0             	and    rax,rdx
    63c3:	48 83 c8 4b          	or     rax,0x4b
    63c7:	49 89 c1             	mov    r9,rax
    63ca:	e9 f9 00 00 00       	jmp    64c8 <_ZSt12__to_chars_iImESt15to_chars_resultPcS1_T_i+0x17b>
    63cf:	48 83 7d d8 00       	cmp    QWORD PTR [rbp-0x28],0x0
    63d4:	75 2a                	jne    6400 <_ZSt12__to_chars_iImESt15to_chars_resultPcS1_T_i+0xb3>
    63d6:	48 8b 45 e8          	mov    rax,QWORD PTR [rbp-0x18]
    63da:	c6 00 30             	mov    BYTE PTR [rax],0x30
    63dd:	48 8b 45 e8          	mov    rax,QWORD PTR [rbp-0x18]
    63e1:	48 83 c0 01          	add    rax,0x1
    63e5:	49 89 c0             	mov    r8,rax
    63e8:	4c 89 ca             	mov    rdx,r9
    63eb:	48 b8 00 00 00 00 ff 	movabs rax,0xffffffff00000000
    63f2:	ff ff ff 
    63f5:	48 21 d0             	and    rax,rdx
    63f8:	49 89 c1             	mov    r9,rax
    63fb:	e9 c8 00 00 00       	jmp    64c8 <_ZSt12__to_chars_iImESt15to_chars_resultPcS1_T_i+0x17b>
    6400:	83 7d d4 10          	cmp    DWORD PTR [rbp-0x2c],0x10
    6404:	74 28                	je     642e <_ZSt12__to_chars_iImESt15to_chars_resultPcS1_T_i+0xe1>
    6406:	83 7d d4 10          	cmp    DWORD PTR [rbp-0x2c],0x10
    640a:	0f 8f 9a 00 00 00    	jg     64aa <_ZSt12__to_chars_iImESt15to_chars_resultPcS1_T_i+0x15d>
    6410:	83 7d d4 0a          	cmp    DWORD PTR [rbp-0x2c],0xa
    6414:	74 37                	je     644d <_ZSt12__to_chars_iImESt15to_chars_resultPcS1_T_i+0x100>
    6416:	83 7d d4 0a          	cmp    DWORD PTR [rbp-0x2c],0xa
    641a:	0f 8f 8a 00 00 00    	jg     64aa <_ZSt12__to_chars_iImESt15to_chars_resultPcS1_T_i+0x15d>
    6420:	83 7d d4 02          	cmp    DWORD PTR [rbp-0x2c],0x2
    6424:	74 65                	je     648b <_ZSt12__to_chars_iImESt15to_chars_resultPcS1_T_i+0x13e>
    6426:	83 7d d4 08          	cmp    DWORD PTR [rbp-0x2c],0x8
    642a:	74 40                	je     646c <_ZSt12__to_chars_iImESt15to_chars_resultPcS1_T_i+0x11f>
    642c:	eb 7c                	jmp    64aa <_ZSt12__to_chars_iImESt15to_chars_resultPcS1_T_i+0x15d>
    642e:	48 8b 55 f8          	mov    rdx,QWORD PTR [rbp-0x8]
    6432:	48 8b 4d e0          	mov    rcx,QWORD PTR [rbp-0x20]
    6436:	48 8b 45 e8          	mov    rax,QWORD PTR [rbp-0x18]
    643a:	48 89 ce             	mov    rsi,rcx
    643d:	48 89 c7             	mov    rdi,rax
    6440:	e8 1a 1d 00 00       	call   815f <_ZNSt8__detail13__to_chars_16ImEESt15to_chars_resultPcS2_T_>
    6445:	49 89 c0             	mov    r8,rax
    6448:	49 89 d1             	mov    r9,rdx
    644b:	eb 7b                	jmp    64c8 <_ZSt12__to_chars_iImESt15to_chars_resultPcS1_T_i+0x17b>
    644d:	48 8b 55 f8          	mov    rdx,QWORD PTR [rbp-0x8]
    6451:	48 8b 4d e0          	mov    rcx,QWORD PTR [rbp-0x20]
    6455:	48 8b 45 e8          	mov    rax,QWORD PTR [rbp-0x18]
    6459:	48 89 ce             	mov    rsi,rcx
    645c:	48 89 c7             	mov    rdi,rax
    645f:	e8 85 1e 00 00       	call   82e9 <_ZNSt8__detail13__to_chars_10ImEESt15to_chars_resultPcS2_T_>
    6464:	49 89 c0             	mov    r8,rax
    6467:	49 89 d1             	mov    r9,rdx
    646a:	eb 5c                	jmp    64c8 <_ZSt12__to_chars_iImESt15to_chars_resultPcS1_T_i+0x17b>
    646c:	48 8b 55 f8          	mov    rdx,QWORD PTR [rbp-0x8]
    6470:	48 8b 4d e0          	mov    rcx,QWORD PTR [rbp-0x20]
    6474:	48 8b 45 e8          	mov    rax,QWORD PTR [rbp-0x18]
    6478:	48 89 ce             	mov    rsi,rcx
    647b:	48 89 c7             	mov    rdi,rax
    647e:	e8 1a 1f 00 00       	call   839d <_ZNSt8__detail12__to_chars_8ImEESt15to_chars_resultPcS2_T_>
    6483:	49 89 c0             	mov    r8,rax
    6486:	49 89 d1             	mov    r9,rdx
    6489:	eb 3d                	jmp    64c8 <_ZSt12__to_chars_iImESt15to_chars_resultPcS1_T_i+0x17b>
    648b:	48 8b 55 f8          	mov    rdx,QWORD PTR [rbp-0x8]
    648f:	48 8b 4d e0          	mov    rcx,QWORD PTR [rbp-0x20]
    6493:	48 8b 45 e8          	mov    rax,QWORD PTR [rbp-0x18]
    6497:	48 89 ce             	mov    rsi,rcx
    649a:	48 89 c7             	mov    rdi,rax
    649d:	e8 5e 20 00 00       	call   8500 <_ZNSt8__detail12__to_chars_2ImEESt15to_chars_resultPcS2_T_>
    64a2:	49 89 c0             	mov    r8,rax
    64a5:	49 89 d1             	mov    r9,rdx
    64a8:	eb 1e                	jmp    64c8 <_ZSt12__to_chars_iImESt15to_chars_resultPcS1_T_i+0x17b>
    64aa:	8b 4d d4             	mov    ecx,DWORD PTR [rbp-0x2c]
    64ad:	48 8b 55 f8          	mov    rdx,QWORD PTR [rbp-0x8]
    64b1:	48 8b 75 e0          	mov    rsi,QWORD PTR [rbp-0x20]
    64b5:	48 8b 45 e8          	mov    rax,QWORD PTR [rbp-0x18]
    64b9:	48 89 c7             	mov    rdi,rax
    64bc:	e8 16 21 00 00       	call   85d7 <_ZNSt8__detail10__to_charsImEESt15to_chars_resultPcS2_T_i>
    64c1:	49 89 c0             	mov    r8,rax
    64c4:	49 89 d1             	mov    r9,rdx
    64c7:	90                   	nop
    64c8:	4c 89 c0             	mov    rax,r8
    64cb:	4c 89 ca             	mov    rdx,r9
    64ce:	c9                   	leave
    64cf:	c3                   	ret

00000000000064d0 <_ZSt12__to_chars_iIyESt15to_chars_resultPcS1_T_i>:
    64d0:	55                   	push   rbp
    64d1:	48 89 e5             	mov    rbp,rsp
    64d4:	48 83 ec 30          	sub    rsp,0x30
    64d8:	48 89 7d e8          	mov    QWORD PTR [rbp-0x18],rdi
    64dc:	48 89 75 e0          	mov    QWORD PTR [rbp-0x20],rsi
    64e0:	48 89 55 d8          	mov    QWORD PTR [rbp-0x28],rdx
    64e4:	89 4d d4             	mov    DWORD PTR [rbp-0x2c],ecx
    64e7:	b8 00 00 00 00       	mov    eax,0x0
    64ec:	84 c0                	test   al,al
    64ee:	74 30                	je     6520 <_ZSt12__to_chars_iIyESt15to_chars_resultPcS1_T_i+0x50>
    64f0:	83 7d d4 01          	cmp    DWORD PTR [rbp-0x2c],0x1
    64f4:	0f 9e c0             	setle  al
    64f7:	0f b6 c0             	movzx  eax,al
    64fa:	48 85 c0             	test   rax,rax
    64fd:	75 0f                	jne    650e <_ZSt12__to_chars_iIyESt15to_chars_resultPcS1_T_i+0x3e>
    64ff:	83 7d d4 24          	cmp    DWORD PTR [rbp-0x2c],0x24
    6503:	0f 9f c0             	setg   al
    6506:	0f b6 c0             	movzx  eax,al
    6509:	48 85 c0             	test   rax,rax
    650c:	74 07                	je     6515 <_ZSt12__to_chars_iIyESt15to_chars_resultPcS1_T_i+0x45>
    650e:	b8 01 00 00 00       	mov    eax,0x1
    6513:	eb 05                	jmp    651a <_ZSt12__to_chars_iIyESt15to_chars_resultPcS1_T_i+0x4a>
    6515:	b8 00 00 00 00       	mov    eax,0x0
    651a:	0f b6 c0             	movzx  eax,al
    651d:	48 85 c0             	test   rax,rax
    6520:	48 8b 45 d8          	mov    rax,QWORD PTR [rbp-0x28]
    6524:	48 89 45 f8          	mov    QWORD PTR [rbp-0x8],rax
    6528:	48 8b 45 e8          	mov    rax,QWORD PTR [rbp-0x18]
    652c:	48 3b 45 e0          	cmp    rax,QWORD PTR [rbp-0x20]
    6530:	75 20                	jne    6552 <_ZSt12__to_chars_iIyESt15to_chars_resultPcS1_T_i+0x82>
    6532:	4c 8b 45 e0          	mov    r8,QWORD PTR [rbp-0x20]
    6536:	4c 89 ca             	mov    rdx,r9
    6539:	48 b8 00 00 00 00 ff 	movabs rax,0xffffffff00000000
    6540:	ff ff ff 
    6543:	48 21 d0             	and    rax,rdx
    6546:	48 83 c8 4b          	or     rax,0x4b
    654a:	49 89 c1             	mov    r9,rax
    654d:	e9 f9 00 00 00       	jmp    664b <_ZSt12__to_chars_iIyESt15to_chars_resultPcS1_T_i+0x17b>
    6552:	48 83 7d d8 00       	cmp    QWORD PTR [rbp-0x28],0x0
    6557:	75 2a                	jne    6583 <_ZSt12__to_chars_iIyESt15to_chars_resultPcS1_T_i+0xb3>
    6559:	48 8b 45 e8          	mov    rax,QWORD PTR [rbp-0x18]
    655d:	c6 00 30             	mov    BYTE PTR [rax],0x30
    6560:	48 8b 45 e8          	mov    rax,QWORD PTR [rbp-0x18]
    6564:	48 83 c0 01          	add    rax,0x1
    6568:	49 89 c0             	mov    r8,rax
    656b:	4c 89 ca             	mov    rdx,r9
    656e:	48 b8 00 00 00 00 ff 	movabs rax,0xffffffff00000000
    6575:	ff ff ff 
    6578:	48 21 d0             	and    rax,rdx
    657b:	49 89 c1             	mov    r9,rax
    657e:	e9 c8 00 00 00       	jmp    664b <_ZSt12__to_chars_iIyESt15to_chars_resultPcS1_T_i+0x17b>
    6583:	83 7d d4 10          	cmp    DWORD PTR [rbp-0x2c],0x10
    6587:	74 28                	je     65b1 <_ZSt12__to_chars_iIyESt15to_chars_resultPcS1_T_i+0xe1>
    6589:	83 7d d4 10          	cmp    DWORD PTR [rbp-0x2c],0x10
    658d:	0f 8f 9a 00 00 00    	jg     662d <_ZSt12__to_chars_iIyESt15to_chars_resultPcS1_T_i+0x15d>
    6593:	83 7d d4 0a          	cmp    DWORD PTR [rbp-0x2c],0xa
    6597:	74 37                	je     65d0 <_ZSt12__to_chars_iIyESt15to_chars_resultPcS1_T_i+0x100>
    6599:	83 7d d4 0a          	cmp    DWORD PTR [rbp-0x2c],0xa
    659d:	0f 8f 8a 00 00 00    	jg     662d <_ZSt12__to_chars_iIyESt15to_chars_resultPcS1_T_i+0x15d>
    65a3:	83 7d d4 02          	cmp    DWORD PTR [rbp-0x2c],0x2
    65a7:	74 65                	je     660e <_ZSt12__to_chars_iIyESt15to_chars_resultPcS1_T_i+0x13e>
    65a9:	83 7d d4 08          	cmp    DWORD PTR [rbp-0x2c],0x8
    65ad:	74 40                	je     65ef <_ZSt12__to_chars_iIyESt15to_chars_resultPcS1_T_i+0x11f>
    65af:	eb 7c                	jmp    662d <_ZSt12__to_chars_iIyESt15to_chars_resultPcS1_T_i+0x15d>
    65b1:	48 8b 55 f8          	mov    rdx,QWORD PTR [rbp-0x8]
    65b5:	48 8b 4d e0          	mov    rcx,QWORD PTR [rbp-0x20]
    65b9:	48 8b 45 e8          	mov    rax,QWORD PTR [rbp-0x18]
    65bd:	48 89 ce             	mov    rsi,rcx
    65c0:	48 89 c7             	mov    rdi,rax
    65c3:	e8 97 1b 00 00       	call   815f <_ZNSt8__detail13__to_chars_16ImEESt15to_chars_resultPcS2_T_>
    65c8:	49 89 c0             	mov    r8,rax
    65cb:	49 89 d1             	mov    r9,rdx
    65ce:	eb 7b                	jmp    664b <_ZSt12__to_chars_iIyESt15to_chars_resultPcS1_T_i+0x17b>
    65d0:	48 8b 55 f8          	mov    rdx,QWORD PTR [rbp-0x8]
    65d4:	48 8b 4d e0          	mov    rcx,QWORD PTR [rbp-0x20]
    65d8:	48 8b 45 e8          	mov    rax,QWORD PTR [rbp-0x18]
    65dc:	48 89 ce             	mov    rsi,rcx
    65df:	48 89 c7             	mov    rdi,rax
    65e2:	e8 02 1d 00 00       	call   82e9 <_ZNSt8__detail13__to_chars_10ImEESt15to_chars_resultPcS2_T_>
    65e7:	49 89 c0             	mov    r8,rax
    65ea:	49 89 d1             	mov    r9,rdx
    65ed:	eb 5c                	jmp    664b <_ZSt12__to_chars_iIyESt15to_chars_resultPcS1_T_i+0x17b>
    65ef:	48 8b 55 f8          	mov    rdx,QWORD PTR [rbp-0x8]
    65f3:	48 8b 4d e0          	mov    rcx,QWORD PTR [rbp-0x20]
    65f7:	48 8b 45 e8          	mov    rax,QWORD PTR [rbp-0x18]
    65fb:	48 89 ce             	mov    rsi,rcx
    65fe:	48 89 c7             	mov    rdi,rax
    6601:	e8 97 1d 00 00       	call   839d <_ZNSt8__detail12__to_chars_8ImEESt15to_chars_resultPcS2_T_>
    6606:	49 89 c0             	mov    r8,rax
    6609:	49 89 d1             	mov    r9,rdx
    660c:	eb 3d                	jmp    664b <_ZSt12__to_chars_iIyESt15to_chars_resultPcS1_T_i+0x17b>
    660e:	48 8b 55 f8          	mov    rdx,QWORD PTR [rbp-0x8]
    6612:	48 8b 4d e0          	mov    rcx,QWORD PTR [rbp-0x20]
    6616:	48 8b 45 e8          	mov    rax,QWORD PTR [rbp-0x18]
    661a:	48 89 ce             	mov    rsi,rcx
    661d:	48 89 c7             	mov    rdi,rax
    6620:	e8 db 1e 00 00       	call   8500 <_ZNSt8__detail12__to_chars_2ImEESt15to_chars_resultPcS2_T_>
    6625:	49 89 c0             	mov    r8,rax
    6628:	49 89 d1             	mov    r9,rdx
    662b:	eb 1e                	jmp    664b <_ZSt12__to_chars_iIyESt15to_chars_resultPcS1_T_i+0x17b>
    662d:	8b 4d d4             	mov    ecx,DWORD PTR [rbp-0x2c]
    6630:	48 8b 55 f8          	mov    rdx,QWORD PTR [rbp-0x8]
    6634:	48 8b 75 e0          	mov    rsi,QWORD PTR [rbp-0x20]
    6638:	48 8b 45 e8          	mov    rax,QWORD PTR [rbp-0x18]
    663c:	48 89 c7             	mov    rdi,rax
    663f:	e8 93 1f 00 00       	call   85d7 <_ZNSt8__detail10__to_charsImEESt15to_chars_resultPcS2_T_i>
    6644:	49 89 c0             	mov    r8,rax
    6647:	49 89 d1             	mov    r9,rdx
    664a:	90                   	nop
    664b:	4c 89 c0             	mov    rax,r8
    664e:	4c 89 ca             	mov    rdx,r9
    6651:	c9                   	leave
    6652:	c3                   	ret

0000000000006653 <_ZSt13__countl_zeroIjEiT_>:
    6653:	55                   	push   rbp
    6654:	48 89 e5             	mov    rbp,rsp
    6657:	89 7d dc             	mov    DWORD PTR [rbp-0x24],edi
    665a:	c7 45 ec 20 00 00 00 	mov    DWORD PTR [rbp-0x14],0x20
    6661:	83 7d dc 00          	cmp    DWORD PTR [rbp-0x24],0x0
    6665:	75 07                	jne    666e <_ZSt13__countl_zeroIjEiT_+0x1b>
    6667:	b8 20 00 00 00       	mov    eax,0x20
    666c:	eb 24                	jmp    6692 <_ZSt13__countl_zeroIjEiT_+0x3f>
    666e:	c7 45 f0 40 00 00 00 	mov    DWORD PTR [rbp-0x10],0x40
    6675:	c7 45 f4 40 00 00 00 	mov    DWORD PTR [rbp-0xc],0x40
    667c:	c7 45 f8 20 00 00 00 	mov    DWORD PTR [rbp-0x8],0x20
    6683:	c7 45 fc 00 00 00 00 	mov    DWORD PTR [rbp-0x4],0x0
    668a:	0f bd 45 dc          	bsr    eax,DWORD PTR [rbp-0x24]
    668e:	83 f0 1f             	xor    eax,0x1f
    6691:	90                   	nop
    6692:	5d                   	pop    rbp
    6693:	c3                   	ret

0000000000006694 <_ZSt12construct_atIcJRKcEEDTgsnwcvPvLi0E_T_pispcl7declvalIT0_EEEEPS3_DpOS4_>:
    6694:	55                   	push   rbp
    6695:	48 89 e5             	mov    rbp,rsp
    6698:	53                   	push   rbx
    6699:	48 83 ec 18          	sub    rsp,0x18
    669d:	48 89 7d e8          	mov    QWORD PTR [rbp-0x18],rdi
    66a1:	48 89 75 e0          	mov    QWORD PTR [rbp-0x20],rsi
    66a5:	48 8b 45 e8          	mov    rax,QWORD PTR [rbp-0x18]
    66a9:	48 89 c6             	mov    rsi,rax
    66ac:	bf 01 00 00 00       	mov    edi,0x1
    66b1:	e8 22 de ff ff       	call   44d8 <_ZnwmPv>
    66b6:	48 89 c3             	mov    rbx,rax
    66b9:	48 8b 45 e0          	mov    rax,QWORD PTR [rbp-0x20]
    66bd:	48 89 c7             	mov    rdi,rax
    66c0:	e8 76 20 00 00       	call   873b <_ZSt7forwardIRKcEOT_RNSt16remove_referenceIS2_E4typeE>
    66c5:	0f b6 00             	movzx  eax,BYTE PTR [rax]
    66c8:	88 03                	mov    BYTE PTR [rbx],al
    66ca:	48 89 d8             	mov    rax,rbx
    66cd:	48 8b 5d f8          	mov    rbx,QWORD PTR [rbp-0x8]
    66d1:	c9                   	leave
    66d2:	c3                   	ret
    66d3:	90                   	nop

00000000000066d4 <_ZN9__gnu_cxx11char_traitsIcE4moveEPcPKcm>:
    66d4:	55                   	push   rbp
    66d5:	48 89 e5             	mov    rbp,rsp
    66d8:	48 83 ec 20          	sub    rsp,0x20
    66dc:	48 89 7d f8          	mov    QWORD PTR [rbp-0x8],rdi
    66e0:	48 89 75 f0          	mov    QWORD PTR [rbp-0x10],rsi
    66e4:	48 89 55 e8          	mov    QWORD PTR [rbp-0x18],rdx
    66e8:	48 83 7d e8 00       	cmp    QWORD PTR [rbp-0x18],0x0
    66ed:	75 06                	jne    66f5 <_ZN9__gnu_cxx11char_traitsIcE4moveEPcPKcm+0x21>
    66ef:	48 8b 45 f8          	mov    rax,QWORD PTR [rbp-0x8]
    66f3:	eb 41                	jmp    6736 <_ZN9__gnu_cxx11char_traitsIcE4moveEPcPKcm+0x62>
    66f5:	b8 00 00 00 00       	mov    eax,0x0
    66fa:	84 c0                	test   al,al
    66fc:	74 1d                	je     671b <_ZN9__gnu_cxx11char_traitsIcE4moveEPcPKcm+0x47>
    66fe:	48 8b 55 e8          	mov    rdx,QWORD PTR [rbp-0x18]
    6702:	48 8b 4d f0          	mov    rcx,QWORD PTR [rbp-0x10]
    6706:	48 8b 45 f8          	mov    rax,QWORD PTR [rbp-0x8]
    670a:	48 89 ce             	mov    rsi,rcx
    670d:	48 89 c7             	mov    rdi,rax
    6710:	e8 23 00 00 00       	call   6738 <_ZN9__gnu_cxx11char_traitsIcE4copyEPcPKcm>
    6715:	48 8b 45 f8          	mov    rax,QWORD PTR [rbp-0x8]
    6719:	eb 1b                	jmp    6736 <_ZN9__gnu_cxx11char_traitsIcE4moveEPcPKcm+0x62>
    671b:	48 8b 55 e8          	mov    rdx,QWORD PTR [rbp-0x18]
    671f:	48 8b 4d f0          	mov    rcx,QWORD PTR [rbp-0x10]
    6723:	48 8b 45 f8          	mov    rax,QWORD PTR [rbp-0x8]
    6727:	48 89 ce             	mov    rsi,rcx
    672a:	48 89 c7             	mov    rdi,rax
    672d:	e8 de db ff ff       	call   4310 <memmove@plt>
    6732:	48 8b 45 f8          	mov    rax,QWORD PTR [rbp-0x8]
    6736:	c9                   	leave
    6737:	c3                   	ret

0000000000006738 <_ZN9__gnu_cxx11char_traitsIcE4copyEPcPKcm>:
    6738:	55                   	push   rbp
    6739:	48 89 e5             	mov    rbp,rsp
    673c:	48 83 ec 30          	sub    rsp,0x30
    6740:	48 89 7d e8          	mov    QWORD PTR [rbp-0x18],rdi
    6744:	48 89 75 e0          	mov    QWORD PTR [rbp-0x20],rsi
    6748:	48 89 55 d8          	mov    QWORD PTR [rbp-0x28],rdx
    674c:	48 83 7d d8 00       	cmp    QWORD PTR [rbp-0x28],0x0
    6751:	75 06                	jne    6759 <_ZN9__gnu_cxx11char_traitsIcE4copyEPcPKcm+0x21>
    6753:	48 8b 45 e8          	mov    rax,QWORD PTR [rbp-0x18]
    6757:	eb 6a                	jmp    67c3 <_ZN9__gnu_cxx11char_traitsIcE4copyEPcPKcm+0x8b>
    6759:	b8 00 00 00 00       	mov    eax,0x0
    675e:	84 c0                	test   al,al
    6760:	74 40                	je     67a2 <_ZN9__gnu_cxx11char_traitsIcE4copyEPcPKcm+0x6a>
    6762:	48 c7 45 f8 00 00 00 	mov    QWORD PTR [rbp-0x8],0x0
    6769:	00 
    676a:	eb 26                	jmp    6792 <_ZN9__gnu_cxx11char_traitsIcE4copyEPcPKcm+0x5a>
    676c:	48 8b 55 e0          	mov    rdx,QWORD PTR [rbp-0x20]
    6770:	48 8b 45 f8          	mov    rax,QWORD PTR [rbp-0x8]
    6774:	48 01 c2             	add    rdx,rax
    6777:	48 8b 4d e8          	mov    rcx,QWORD PTR [rbp-0x18]
    677b:	48 8b 45 f8          	mov    rax,QWORD PTR [rbp-0x8]
    677f:	48 01 c8             	add    rax,rcx
    6782:	48 89 d6             	mov    rsi,rdx
    6785:	48 89 c7             	mov    rdi,rax
    6788:	e8 07 ff ff ff       	call   6694 <_ZSt12construct_atIcJRKcEEDTgsnwcvPvLi0E_T_pispcl7declvalIT0_EEEEPS3_DpOS4_>
    678d:	48 83 45 f8 01       	add    QWORD PTR [rbp-0x8],0x1
    6792:	48 8b 45 f8          	mov    rax,QWORD PTR [rbp-0x8]
    6796:	48 3b 45 d8          	cmp    rax,QWORD PTR [rbp-0x28]
    679a:	72 d0                	jb     676c <_ZN9__gnu_cxx11char_traitsIcE4copyEPcPKcm+0x34>
    679c:	48 8b 45 e8          	mov    rax,QWORD PTR [rbp-0x18]
    67a0:	eb 21                	jmp    67c3 <_ZN9__gnu_cxx11char_traitsIcE4copyEPcPKcm+0x8b>
    67a2:	48 8b 55 e8          	mov    rdx,QWORD PTR [rbp-0x18]
    67a6:	48 8b 45 e0          	mov    rax,QWORD PTR [rbp-0x20]
    67aa:	48 89 d1             	mov    rcx,rdx
    67ad:	48 89 c6             	mov    rsi,rax
    67b0:	48 8b 45 d8          	mov    rax,QWORD PTR [rbp-0x28]
    67b4:	48 89 c2             	mov    rdx,rax
    67b7:	48 89 cf             	mov    rdi,rcx
    67ba:	e8 01 da ff ff       	call   41c0 <memcpy@plt>
    67bf:	48 8b 45 e8          	mov    rax,QWORD PTR [rbp-0x18]
    67c3:	c9                   	leave
    67c4:	c3                   	ret
    67c5:	90                   	nop

00000000000067c6 <_ZN9__gnu_cxx11char_traitsIcE6assignEPcmc>:
    67c6:	55                   	push   rbp
    67c7:	48 89 e5             	mov    rbp,rsp
    67ca:	48 83 ec 40          	sub    rsp,0x40
    67ce:	48 89 7d d8          	mov    QWORD PTR [rbp-0x28],rdi
    67d2:	48 89 75 d0          	mov    QWORD PTR [rbp-0x30],rsi
    67d6:	89 d0                	mov    eax,edx
    67d8:	88 45 cc             	mov    BYTE PTR [rbp-0x34],al
    67db:	64 48 8b 04 25 28 00 	mov    rax,QWORD PTR fs:0x28
    67e2:	00 00 
    67e4:	48 89 45 f8          	mov    QWORD PTR [rbp-0x8],rax
    67e8:	31 c0                	xor    eax,eax
    67ea:	b8 00 00 00 00       	mov    eax,0x0
    67ef:	84 c0                	test   al,al
    67f1:	74 39                	je     682c <_ZN9__gnu_cxx11char_traitsIcE6assignEPcmc+0x66>
    67f3:	48 c7 45 f0 00 00 00 	mov    QWORD PTR [rbp-0x10],0x0
    67fa:	00 
    67fb:	eb 1f                	jmp    681c <_ZN9__gnu_cxx11char_traitsIcE6assignEPcmc+0x56>
    67fd:	48 8b 55 d8          	mov    rdx,QWORD PTR [rbp-0x28]
    6801:	48 8b 45 f0          	mov    rax,QWORD PTR [rbp-0x10]
    6805:	48 01 c2             	add    rdx,rax
    6808:	48 8d 45 cc          	lea    rax,[rbp-0x34]
    680c:	48 89 c6             	mov    rsi,rax
    680f:	48 89 d7             	mov    rdi,rdx
    6812:	e8 32 1f 00 00       	call   8749 <_ZSt12construct_atIcJRcEEDTgsnwcvPvLi0E_T_pispcl7declvalIT0_EEEEPS2_DpOS3_>
    6817:	48 83 45 f0 01       	add    QWORD PTR [rbp-0x10],0x1
    681c:	48 8b 45 f0          	mov    rax,QWORD PTR [rbp-0x10]
    6820:	48 3b 45 d0          	cmp    rax,QWORD PTR [rbp-0x30]
    6824:	72 d7                	jb     67fd <_ZN9__gnu_cxx11char_traitsIcE6assignEPcmc+0x37>
    6826:	48 8b 45 d8          	mov    rax,QWORD PTR [rbp-0x28]
    682a:	eb 2b                	jmp    6857 <_ZN9__gnu_cxx11char_traitsIcE6assignEPcmc+0x91>
    682c:	48 83 7d d0 00       	cmp    QWORD PTR [rbp-0x30],0x0
    6831:	74 20                	je     6853 <_ZN9__gnu_cxx11char_traitsIcE6assignEPcmc+0x8d>
    6833:	0f b6 45 cc          	movzx  eax,BYTE PTR [rbp-0x34]
    6837:	88 45 ef             	mov    BYTE PTR [rbp-0x11],al
    683a:	0f b6 45 ef          	movzx  eax,BYTE PTR [rbp-0x11]
    683e:	0f b6 c8             	movzx  ecx,al
    6841:	48 8b 55 d0          	mov    rdx,QWORD PTR [rbp-0x30]
    6845:	48 8b 45 d8          	mov    rax,QWORD PTR [rbp-0x28]
    6849:	89 ce                	mov    esi,ecx
    684b:	48 89 c7             	mov    rdi,rax
    684e:	e8 ad d8 ff ff       	call   4100 <memset@plt>
    6853:	48 8b 45 d8          	mov    rax,QWORD PTR [rbp-0x28]
    6857:	48 8b 55 f8          	mov    rdx,QWORD PTR [rbp-0x8]
    685b:	64 48 2b 14 25 28 00 	sub    rdx,QWORD PTR fs:0x28
    6862:	00 00 
    6864:	74 05                	je     686b <_ZN9__gnu_cxx11char_traitsIcE6assignEPcmc+0xa5>
    6866:	e8 f5 d9 ff ff       	call   4260 <__stack_chk_fail@plt>
    686b:	c9                   	leave
    686c:	c3                   	ret
    686d:	90                   	nop

000000000000686e <_ZNKSt17basic_string_viewIcSt11char_traitsIcEE4dataEv>:
    686e:	55                   	push   rbp
    686f:	48 89 e5             	mov    rbp,rsp
    6872:	48 89 7d f8          	mov    QWORD PTR [rbp-0x8],rdi
    6876:	48 8b 45 f8          	mov    rax,QWORD PTR [rbp-0x8]
    687a:	48 8b 40 08          	mov    rax,QWORD PTR [rax+0x8]
    687e:	5d                   	pop    rbp
    687f:	c3                   	ret

0000000000006880 <_ZNSt17basic_string_viewIcSt11char_traitsIcEEC1EPKcm>:
    6880:	55                   	push   rbp
    6881:	48 89 e5             	mov    rbp,rsp
    6884:	48 89 7d f8          	mov    QWORD PTR [rbp-0x8],rdi
    6888:	48 89 75 f0          	mov    QWORD PTR [rbp-0x10],rsi
    688c:	48 89 55 e8          	mov    QWORD PTR [rbp-0x18],rdx
    6890:	48 8b 45 f8          	mov    rax,QWORD PTR [rbp-0x8]
    6894:	48 8b 55 e8          	mov    rdx,QWORD PTR [rbp-0x18]
    6898:	48 89 10             	mov    QWORD PTR [rax],rdx
    689b:	48 8b 45 f8          	mov    rax,QWORD PTR [rbp-0x8]
    689f:	48 8b 55 f0          	mov    rdx,QWORD PTR [rbp-0x10]
    68a3:	48 89 50 08          	mov    QWORD PTR [rax+0x8],rdx
    68a7:	90                   	nop
    68a8:	5d                   	pop    rbp
    68a9:	c3                   	ret

00000000000068aa <_ZNKSt7__cxx1112basic_stringIcSt11char_traitsIcESaIcEE7_M_dataEv>:
    68aa:	55                   	push   rbp
    68ab:	48 89 e5             	mov    rbp,rsp
    68ae:	48 89 7d f8          	mov    QWORD PTR [rbp-0x8],rdi
    68b2:	48 8b 45 f8          	mov    rax,QWORD PTR [rbp-0x8]
    68b6:	48 8b 00             	mov    rax,QWORD PTR [rax]
    68b9:	5d                   	pop    rbp
    68ba:	c3                   	ret
    68bb:	90                   	nop

00000000000068bc <_ZNSt7__cxx1112basic_stringIcSt11char_traitsIcESaIcEE13_M_set_lengthEm>:
    68bc:	55                   	push   rbp
    68bd:	48 89 e5             	mov    rbp,rsp
    68c0:	48 83 ec 20          	sub    rsp,0x20
    68c4:	48 89 7d e8          	mov    QWORD PTR [rbp-0x18],rdi
    68c8:	48 89 75 e0          	mov    QWORD PTR [rbp-0x20],rsi
    68cc:	64 48 8b 04 25 28 00 	mov    rax,QWORD PTR fs:0x28
    68d3:	00 00 
    68d5:	48 89 45 f8          	mov    QWORD PTR [rbp-0x8],rax
    68d9:	31 c0                	xor    eax,eax
    68db:	48 8b 55 e0          	mov    rdx,QWORD PTR [rbp-0x20]
    68df:	48 8b 45 e8          	mov    rax,QWORD PTR [rbp-0x18]
    68e3:	48 89 d6             	mov    rsi,rdx
    68e6:	48 89 c7             	mov    rdi,rax
    68e9:	e8 9a 1e 00 00       	call   8788 <_ZNSt7__cxx1112basic_stringIcSt11char_traitsIcESaIcEE9_M_lengthEm>
    68ee:	c6 45 f7 00          	mov    BYTE PTR [rbp-0x9],0x0
    68f2:	48 8b 45 e8          	mov    rax,QWORD PTR [rbp-0x18]
    68f6:	48 89 c7             	mov    rdi,rax
    68f9:	e8 ac ff ff ff       	call   68aa <_ZNKSt7__cxx1112basic_stringIcSt11char_traitsIcESaIcEE7_M_dataEv>
    68fe:	48 8b 55 e0          	mov    rdx,QWORD PTR [rbp-0x20]
    6902:	48 01 c2             	add    rdx,rax
    6905:	48 8d 45 f7          	lea    rax,[rbp-0x9]
    6909:	48 89 c6             	mov    rsi,rax
    690c:	48 89 d7             	mov    rdi,rdx
    690f:	e8 3b dc ff ff       	call   454f <_ZNSt11char_traitsIcE6assignERcRKc>
    6914:	90                   	nop
    6915:	48 8b 45 f8          	mov    rax,QWORD PTR [rbp-0x8]
    6919:	64 48 2b 04 25 28 00 	sub    rax,QWORD PTR fs:0x28
    6920:	00 00 
    6922:	74 05                	je     6929 <_ZNSt7__cxx1112basic_stringIcSt11char_traitsIcESaIcEE13_M_set_lengthEm+0x6d>
    6924:	e8 37 d9 ff ff       	call   4260 <__stack_chk_fail@plt>
    6929:	c9                   	leave
    692a:	c3                   	ret
    692b:	90                   	nop

000000000000692c <_ZNSt7__cxx1112basic_stringIcSt11char_traitsIcESaIcEED1Ev>:
    692c:	55                   	push   rbp
    692d:	48 89 e5             	mov    rbp,rsp
    6930:	48 83 ec 10          	sub    rsp,0x10
    6934:	48 89 7d f8          	mov    QWORD PTR [rbp-0x8],rdi
    6938:	48 8b 45 f8          	mov    rax,QWORD PTR [rbp-0x8]
    693c:	48 89 c7             	mov    rdi,rax
    693f:	e8 60 1e 00 00       	call   87a4 <_ZNSt7__cxx1112basic_stringIcSt11char_traitsIcESaIcEE10_M_disposeEv>
    6944:	48 8b 45 f8          	mov    rax,QWORD PTR [rbp-0x8]
    6948:	48 89 c7             	mov    rdi,rax
    694b:	e8 f4 df ff ff       	call   4944 <_ZNSt7__cxx1112basic_stringIcSt11char_traitsIcESaIcEE12_Alloc_hiderD1Ev>
    6950:	90                   	nop
    6951:	c9                   	leave
    6952:	c3                   	ret

0000000000006953 <_ZNSt8__detail18__to_chars_10_implIjEEvPcjT_>:
    6953:	55                   	push   rbp
    6954:	48 89 e5             	mov    rbp,rsp
    6957:	48 81 ec 00 01 00 00 	sub    rsp,0x100
    695e:	48 89 bd 08 ff ff ff 	mov    QWORD PTR [rbp-0xf8],rdi
    6965:	89 b5 04 ff ff ff    	mov    DWORD PTR [rbp-0xfc],esi
    696b:	89 95 00 ff ff ff    	mov    DWORD PTR [rbp-0x100],edx
    6971:	64 48 8b 04 25 28 00 	mov    rax,QWORD PTR fs:0x28
    6978:	00 00 
    697a:	48 89 45 f8          	mov    QWORD PTR [rbp-0x8],rax
    697e:	31 c0                	xor    eax,eax
    6980:	48 b8 30 30 30 31 30 	movabs rax,0x3330323031303030
    6987:	32 30 33 
    698a:	48 ba 30 34 30 35 30 	movabs rdx,0x3730363035303430
    6991:	36 30 37 
    6994:	48 89 85 20 ff ff ff 	mov    QWORD PTR [rbp-0xe0],rax
    699b:	48 89 95 28 ff ff ff 	mov    QWORD PTR [rbp-0xd8],rdx
    69a2:	48 b8 30 38 30 39 31 	movabs rax,0x3131303139303830
    69a9:	30 31 31 
    69ac:	48 ba 31 32 31 33 31 	movabs rdx,0x3531343133313231
    69b3:	34 31 35 
    69b6:	48 89 85 30 ff ff ff 	mov    QWORD PTR [rbp-0xd0],rax
    69bd:	48 89 95 38 ff ff ff 	mov    QWORD PTR [rbp-0xc8],rdx
    69c4:	48 b8 31 36 31 37 31 	movabs rax,0x3931383137313631
    69cb:	38 31 39 
    69ce:	48 ba 32 30 32 31 32 	movabs rdx,0x3332323231323032
    69d5:	32 32 33 
    69d8:	48 89 85 40 ff ff ff 	mov    QWORD PTR [rbp-0xc0],rax
    69df:	48 89 95 48 ff ff ff 	mov    QWORD PTR [rbp-0xb8],rdx
    69e6:	48 b8 32 34 32 35 32 	movabs rax,0x3732363235323432
    69ed:	36 32 37 
    69f0:	48 ba 32 38 32 39 33 	movabs rdx,0x3133303339323832
    69f7:	30 33 31 
    69fa:	48 89 85 50 ff ff ff 	mov    QWORD PTR [rbp-0xb0],rax
    6a01:	48 89 95 58 ff ff ff 	mov    QWORD PTR [rbp-0xa8],rdx
    6a08:	48 b8 33 32 33 33 33 	movabs rax,0x3533343333333233
    6a0f:	34 33 35 
    6a12:	48 ba 33 36 33 37 33 	movabs rdx,0x3933383337333633
    6a19:	38 33 39 
    6a1c:	48 89 85 60 ff ff ff 	mov    QWORD PTR [rbp-0xa0],rax
    6a23:	48 89 95 68 ff ff ff 	mov    QWORD PTR [rbp-0x98],rdx
    6a2a:	48 b8 34 30 34 31 34 	movabs rax,0x3334323431343034
    6a31:	32 34 33 
    6a34:	48 ba 34 34 34 35 34 	movabs rdx,0x3734363435343434
    6a3b:	36 34 37 
    6a3e:	48 89 85 70 ff ff ff 	mov    QWORD PTR [rbp-0x90],rax
    6a45:	48 89 95 78 ff ff ff 	mov    QWORD PTR [rbp-0x88],rdx
    6a4c:	48 b8 34 38 34 39 35 	movabs rax,0x3135303539343834
    6a53:	30 35 31 
    6a56:	48 ba 35 32 35 33 35 	movabs rdx,0x3535343533353235
    6a5d:	34 35 35 
    6a60:	48 89 45 80          	mov    QWORD PTR [rbp-0x80],rax
    6a64:	48 89 55 88          	mov    QWORD PTR [rbp-0x78],rdx
    6a68:	48 b8 35 36 35 37 35 	movabs rax,0x3935383537353635
    6a6f:	38 35 39 
    6a72:	48 ba 36 30 36 31 36 	movabs rdx,0x3336323631363036
    6a79:	32 36 33 
    6a7c:	48 89 45 90          	mov    QWORD PTR [rbp-0x70],rax
    6a80:	48 89 55 98          	mov    QWORD PTR [rbp-0x68],rdx
    6a84:	48 b8 36 34 36 35 36 	movabs rax,0x3736363635363436
    6a8b:	36 36 37 
    6a8e:	48 ba 36 38 36 39 37 	movabs rdx,0x3137303739363836
    6a95:	30 37 31 
    6a98:	48 89 45 a0          	mov    QWORD PTR [rbp-0x60],rax
    6a9c:	48 89 55 a8          	mov    QWORD PTR [rbp-0x58],rdx
    6aa0:	48 b8 37 32 37 33 37 	movabs rax,0x3537343733373237
    6aa7:	34 37 35 
    6aaa:	48 ba 37 36 37 37 37 	movabs rdx,0x3937383737373637
    6ab1:	38 37 39 
    6ab4:	48 89 45 b0          	mov    QWORD PTR [rbp-0x50],rax
    6ab8:	48 89 55 b8          	mov    QWORD PTR [rbp-0x48],rdx
    6abc:	48 b8 38 30 38 31 38 	movabs rax,0x3338323831383038
    6ac3:	32 38 33 
    6ac6:	48 ba 38 34 38 35 38 	movabs rdx,0x3738363835383438
    6acd:	36 38 37 
    6ad0:	48 89 45 c0          	mov    QWORD PTR [rbp-0x40],rax
    6ad4:	48 89 55 c8          	mov    QWORD PTR [rbp-0x38],rdx
    6ad8:	48 b8 38 38 38 39 39 	movabs rax,0x3139303939383838
    6adf:	30 39 31 
    6ae2:	48 ba 39 32 39 33 39 	movabs rdx,0x3539343933393239
    6ae9:	34 39 35 
    6aec:	48 89 45 d0          	mov    QWORD PTR [rbp-0x30],rax
    6af0:	48 89 55 d8          	mov    QWORD PTR [rbp-0x28],rdx
    6af4:	48 b8 32 39 33 39 34 	movabs rax,0x3935393439333932
    6afb:	39 35 39 
    6afe:	48 ba 36 39 37 39 38 	movabs rdx,0x39393839373936
    6b05:	39 39 00 
    6b08:	48 89 45 d9          	mov    QWORD PTR [rbp-0x27],rax
    6b0c:	48 89 55 e1          	mov    QWORD PTR [rbp-0x1f],rdx
    6b10:	8b 85 04 ff ff ff    	mov    eax,DWORD PTR [rbp-0xfc]
    6b16:	83 e8 01             	sub    eax,0x1
    6b19:	89 85 14 ff ff ff    	mov    DWORD PTR [rbp-0xec],eax
    6b1f:	e9 92 00 00 00       	jmp    6bb6 <_ZNSt8__detail18__to_chars_10_implIjEEvPcjT_+0x263>
    6b24:	8b 8d 00 ff ff ff    	mov    ecx,DWORD PTR [rbp-0x100]
    6b2a:	89 c8                	mov    eax,ecx
    6b2c:	48 69 c0 1f 85 eb 51 	imul   rax,rax,0x51eb851f
    6b33:	48 c1 e8 20          	shr    rax,0x20
    6b37:	c1 e8 05             	shr    eax,0x5
    6b3a:	6b d0 64             	imul   edx,eax,0x64
    6b3d:	89 c8                	mov    eax,ecx
    6b3f:	29 d0                	sub    eax,edx
    6b41:	01 c0                	add    eax,eax
    6b43:	89 85 1c ff ff ff    	mov    DWORD PTR [rbp-0xe4],eax
    6b49:	8b 85 00 ff ff ff    	mov    eax,DWORD PTR [rbp-0x100]
    6b4f:	89 c0                	mov    eax,eax
    6b51:	48 69 c0 1f 85 eb 51 	imul   rax,rax,0x51eb851f
    6b58:	48 c1 e8 20          	shr    rax,0x20
    6b5c:	c1 e8 05             	shr    eax,0x5
    6b5f:	89 85 00 ff ff ff    	mov    DWORD PTR [rbp-0x100],eax
    6b65:	8b 85 1c ff ff ff    	mov    eax,DWORD PTR [rbp-0xe4]
    6b6b:	8d 48 01             	lea    ecx,[rax+0x1]
    6b6e:	8b 95 14 ff ff ff    	mov    edx,DWORD PTR [rbp-0xec]
    6b74:	48 8b 85 08 ff ff ff 	mov    rax,QWORD PTR [rbp-0xf8]
    6b7b:	48 01 c2             	add    rdx,rax
    6b7e:	89 c8                	mov    eax,ecx
    6b80:	0f b6 84 05 20 ff ff 	movzx  eax,BYTE PTR [rbp+rax*1-0xe0]
    6b87:	ff 
    6b88:	88 02                	mov    BYTE PTR [rdx],al
    6b8a:	8b 85 14 ff ff ff    	mov    eax,DWORD PTR [rbp-0xec]
    6b90:	83 e8 01             	sub    eax,0x1
    6b93:	89 c2                	mov    edx,eax
    6b95:	48 8b 85 08 ff ff ff 	mov    rax,QWORD PTR [rbp-0xf8]
    6b9c:	48 01 c2             	add    rdx,rax
    6b9f:	8b 85 1c ff ff ff    	mov    eax,DWORD PTR [rbp-0xe4]
    6ba5:	0f b6 84 05 20 ff ff 	movzx  eax,BYTE PTR [rbp+rax*1-0xe0]
    6bac:	ff 
    6bad:	88 02                	mov    BYTE PTR [rdx],al
    6baf:	83 ad 14 ff ff ff 02 	sub    DWORD PTR [rbp-0xec],0x2
    6bb6:	83 bd 00 ff ff ff 63 	cmp    DWORD PTR [rbp-0x100],0x63
    6bbd:	0f 87 61 ff ff ff    	ja     6b24 <_ZNSt8__detail18__to_chars_10_implIjEEvPcjT_+0x1d1>
    6bc3:	83 bd 00 ff ff ff 09 	cmp    DWORD PTR [rbp-0x100],0x9
    6bca:	76 47                	jbe    6c13 <_ZNSt8__detail18__to_chars_10_implIjEEvPcjT_+0x2c0>
    6bcc:	8b 85 00 ff ff ff    	mov    eax,DWORD PTR [rbp-0x100]
    6bd2:	01 c0                	add    eax,eax
    6bd4:	89 85 18 ff ff ff    	mov    DWORD PTR [rbp-0xe8],eax
    6bda:	8b 85 18 ff ff ff    	mov    eax,DWORD PTR [rbp-0xe8]
    6be0:	8d 48 01             	lea    ecx,[rax+0x1]
    6be3:	48 8b 85 08 ff ff ff 	mov    rax,QWORD PTR [rbp-0xf8]
    6bea:	48 8d 50 01          	lea    rdx,[rax+0x1]
    6bee:	89 c8                	mov    eax,ecx
    6bf0:	0f b6 84 05 20 ff ff 	movzx  eax,BYTE PTR [rbp+rax*1-0xe0]
    6bf7:	ff 
    6bf8:	88 02                	mov    BYTE PTR [rdx],al
    6bfa:	8b 85 18 ff ff ff    	mov    eax,DWORD PTR [rbp-0xe8]
    6c00:	0f b6 94 05 20 ff ff 	movzx  edx,BYTE PTR [rbp+rax*1-0xe0]
    6c07:	ff 
    6c08:	48 8b 85 08 ff ff ff 	mov    rax,QWORD PTR [rbp-0xf8]
    6c0f:	88 10                	mov    BYTE PTR [rax],dl
    6c11:	eb 14                	jmp    6c27 <_ZNSt8__detail18__to_chars_10_implIjEEvPcjT_+0x2d4>
    6c13:	8b 85 00 ff ff ff    	mov    eax,DWORD PTR [rbp-0x100]
    6c19:	83 c0 30             	add    eax,0x30
    6c1c:	89 c2                	mov    edx,eax
    6c1e:	48 8b 85 08 ff ff ff 	mov    rax,QWORD PTR [rbp-0xf8]
    6c25:	88 10                	mov    BYTE PTR [rax],dl
    6c27:	90                   	nop
    6c28:	48 8b 45 f8          	mov    rax,QWORD PTR [rbp-0x8]
    6c2c:	64 48 2b 04 25 28 00 	sub    rax,QWORD PTR fs:0x28
    6c33:	00 00 
    6c35:	74 05                	je     6c3c <_ZNSt8__detail18__to_chars_10_implIjEEvPcjT_+0x2e9>
    6c37:	e8 24 d6 ff ff       	call   4260 <__stack_chk_fail@plt>
    6c3c:	c9                   	leave
    6c3d:	c3                   	ret

0000000000006c3e <_ZNSt7__cxx1112basic_stringIcSt11char_traitsIcESaIcEE16_M_get_allocatorEv>:
    6c3e:	55                   	push   rbp
    6c3f:	48 89 e5             	mov    rbp,rsp
    6c42:	48 89 7d f8          	mov    QWORD PTR [rbp-0x8],rdi
    6c46:	48 8b 45 f8          	mov    rax,QWORD PTR [rbp-0x8]
    6c4a:	5d                   	pop    rbp
    6c4b:	c3                   	ret

0000000000006c4c <_ZNKSt7__cxx1112basic_stringIcSt11char_traitsIcESaIcEE11_M_is_localEv>:
    6c4c:	55                   	push   rbp
    6c4d:	48 89 e5             	mov    rbp,rsp
    6c50:	53                   	push   rbx
    6c51:	48 83 ec 18          	sub    rsp,0x18
    6c55:	48 89 7d e8          	mov    QWORD PTR [rbp-0x18],rdi
    6c59:	48 8b 45 e8          	mov    rax,QWORD PTR [rbp-0x18]
    6c5d:	48 89 c7             	mov    rdi,rax
    6c60:	e8 45 fc ff ff       	call   68aa <_ZNKSt7__cxx1112basic_stringIcSt11char_traitsIcESaIcEE7_M_dataEv>
    6c65:	48 89 c3             	mov    rbx,rax
    6c68:	48 8b 45 e8          	mov    rax,QWORD PTR [rbp-0x18]
    6c6c:	48 89 c7             	mov    rdi,rax
    6c6f:	e8 6a 1b 00 00       	call   87de <_ZNKSt7__cxx1112basic_stringIcSt11char_traitsIcESaIcEE13_M_local_dataEv>
    6c74:	48 39 c3             	cmp    rbx,rax
    6c77:	0f 94 c0             	sete   al
    6c7a:	84 c0                	test   al,al
    6c7c:	74 13                	je     6c91 <_ZNKSt7__cxx1112basic_stringIcSt11char_traitsIcESaIcEE11_M_is_localEv+0x45>
    6c7e:	48 8b 45 e8          	mov    rax,QWORD PTR [rbp-0x18]
    6c82:	48 8b 40 08          	mov    rax,QWORD PTR [rax+0x8]
    6c86:	48 83 f8 0f          	cmp    rax,0xf
    6c8a:	b8 01 00 00 00       	mov    eax,0x1
    6c8f:	eb 05                	jmp    6c96 <_ZNKSt7__cxx1112basic_stringIcSt11char_traitsIcESaIcEE11_M_is_localEv+0x4a>
    6c91:	b8 00 00 00 00       	mov    eax,0x0
    6c96:	48 8b 5d f8          	mov    rbx,QWORD PTR [rbp-0x8]
    6c9a:	c9                   	leave
    6c9b:	c3                   	ret

0000000000006c9c <_ZNKSt7__cxx1112basic_stringIcSt11char_traitsIcESaIcEE6lengthEv>:
    6c9c:	55                   	push   rbp
    6c9d:	48 89 e5             	mov    rbp,rsp
    6ca0:	48 89 7d f8          	mov    QWORD PTR [rbp-0x8],rdi
    6ca4:	48 8b 45 f8          	mov    rax,QWORD PTR [rbp-0x8]
    6ca8:	48 8b 40 08          	mov    rax,QWORD PTR [rax+0x8]
    6cac:	5d                   	pop    rbp
    6cad:	c3                   	ret

0000000000006cae <_ZNSt7__cxx1112basic_stringIcSt11char_traitsIcESaIcEEC1EOS4_>:
    6cae:	55                   	push   rbp
    6caf:	48 89 e5             	mov    rbp,rsp
    6cb2:	41 54                	push   r12
    6cb4:	53                   	push   rbx
    6cb5:	48 83 ec 40          	sub    rsp,0x40
    6cb9:	48 89 7d b8          	mov    QWORD PTR [rbp-0x48],rdi
    6cbd:	48 89 75 b0          	mov    QWORD PTR [rbp-0x50],rsi
    6cc1:	48 8b 5d b8          	mov    rbx,QWORD PTR [rbp-0x48]
    6cc5:	48 8b 45 b0          	mov    rax,QWORD PTR [rbp-0x50]
    6cc9:	48 89 c7             	mov    rdi,rax
    6ccc:	e8 6d ff ff ff       	call   6c3e <_ZNSt7__cxx1112basic_stringIcSt11char_traitsIcESaIcEE16_M_get_allocatorEv>
    6cd1:	48 89 c7             	mov    rdi,rax
    6cd4:	e8 5d dc ff ff       	call   4936 <_ZSt4moveIRSaIcEEONSt16remove_referenceIT_E4typeEOS3_>
    6cd9:	49 89 c4             	mov    r12,rax
    6cdc:	48 8b 45 b8          	mov    rax,QWORD PTR [rbp-0x48]
    6ce0:	48 89 c7             	mov    rdi,rax
    6ce3:	e8 a2 db ff ff       	call   488a <_ZNSt7__cxx1112basic_stringIcSt11char_traitsIcESaIcEE13_M_local_dataEv>
    6ce8:	4c 89 e2             	mov    rdx,r12
    6ceb:	48 89 c6             	mov    rsi,rax
    6cee:	48 89 df             	mov    rdi,rbx
    6cf1:	e8 f4 db ff ff       	call   48ea <_ZNSt7__cxx1112basic_stringIcSt11char_traitsIcESaIcEE12_Alloc_hiderC1EPcOS3_>
    6cf6:	48 8b 45 b0          	mov    rax,QWORD PTR [rbp-0x50]
    6cfa:	48 89 c7             	mov    rdi,rax
    6cfd:	e8 4a ff ff ff       	call   6c4c <_ZNKSt7__cxx1112basic_stringIcSt11char_traitsIcESaIcEE11_M_is_localEv>
    6d02:	84 c0                	test   al,al
    6d04:	74 67                	je     6d6d <_ZNSt7__cxx1112basic_stringIcSt11char_traitsIcESaIcEEC1EOS4_+0xbf>
    6d06:	48 8b 45 b8          	mov    rax,QWORD PTR [rbp-0x48]
    6d0a:	48 89 45 c8          	mov    QWORD PTR [rbp-0x38],rax
    6d0e:	e8 96 d7 ff ff       	call   44a9 <_ZSt21is_constant_evaluatedv>
    6d13:	84 c0                	test   al,al
    6d15:	74 28                	je     6d3f <_ZNSt7__cxx1112basic_stringIcSt11char_traitsIcESaIcEEC1EOS4_+0x91>
    6d17:	48 c7 45 d0 00 00 00 	mov    QWORD PTR [rbp-0x30],0x0
    6d1e:	00 
    6d1f:	eb 17                	jmp    6d38 <_ZNSt7__cxx1112basic_stringIcSt11char_traitsIcESaIcEEC1EOS4_+0x8a>
    6d21:	48 8b 55 c8          	mov    rdx,QWORD PTR [rbp-0x38]
    6d25:	48 8b 45 d0          	mov    rax,QWORD PTR [rbp-0x30]
    6d29:	48 01 d0             	add    rax,rdx
    6d2c:	48 83 c0 10          	add    rax,0x10
    6d30:	c6 00 00             	mov    BYTE PTR [rax],0x0
    6d33:	48 83 45 d0 01       	add    QWORD PTR [rbp-0x30],0x1
    6d38:	48 83 7d d0 0f       	cmp    QWORD PTR [rbp-0x30],0xf
    6d3d:	76 e2                	jbe    6d21 <_ZNSt7__cxx1112basic_stringIcSt11char_traitsIcESaIcEEC1EOS4_+0x73>
    6d3f:	90                   	nop
    6d40:	48 8b 45 b0          	mov    rax,QWORD PTR [rbp-0x50]
    6d44:	48 89 c7             	mov    rdi,rax
    6d47:	e8 50 ff ff ff       	call   6c9c <_ZNKSt7__cxx1112basic_stringIcSt11char_traitsIcESaIcEE6lengthEv>
    6d4c:	48 8d 50 01          	lea    rdx,[rax+0x1]
    6d50:	48 8b 45 b0          	mov    rax,QWORD PTR [rbp-0x50]
    6d54:	48 8d 48 10          	lea    rcx,[rax+0x10]
    6d58:	48 8b 45 b8          	mov    rax,QWORD PTR [rbp-0x48]
    6d5c:	48 83 c0 10          	add    rax,0x10
    6d60:	48 89 ce             	mov    rsi,rcx
    6d63:	48 89 c7             	mov    rdi,rax
    6d66:	e8 18 da ff ff       	call   4783 <_ZNSt11char_traitsIcE4copyEPcPKcm>
    6d6b:	eb 35                	jmp    6da2 <_ZNSt7__cxx1112basic_stringIcSt11char_traitsIcESaIcEEC1EOS4_+0xf4>
    6d6d:	48 8b 45 b0          	mov    rax,QWORD PTR [rbp-0x50]
    6d71:	48 89 c7             	mov    rdi,rax
    6d74:	e8 31 fb ff ff       	call   68aa <_ZNKSt7__cxx1112basic_stringIcSt11char_traitsIcESaIcEE7_M_dataEv>
    6d79:	48 89 c2             	mov    rdx,rax
    6d7c:	48 8b 45 b8          	mov    rax,QWORD PTR [rbp-0x48]
    6d80:	48 89 d6             	mov    rsi,rdx
    6d83:	48 89 c7             	mov    rdi,rax
    6d86:	e8 71 1a 00 00       	call   87fc <_ZNSt7__cxx1112basic_stringIcSt11char_traitsIcESaIcEE7_M_dataEPc>
    6d8b:	48 8b 45 b0          	mov    rax,QWORD PTR [rbp-0x50]
    6d8f:	48 8b 50 10          	mov    rdx,QWORD PTR [rax+0x10]
    6d93:	48 8b 45 b8          	mov    rax,QWORD PTR [rbp-0x48]
    6d97:	48 89 d6             	mov    rsi,rdx
    6d9a:	48 89 c7             	mov    rdi,rax
    6d9d:	e8 74 1a 00 00       	call   8816 <_ZNSt7__cxx1112basic_stringIcSt11char_traitsIcESaIcEE11_M_capacityEm>
    6da2:	48 8b 45 b0          	mov    rax,QWORD PTR [rbp-0x50]
    6da6:	48 89 c7             	mov    rdi,rax
    6da9:	e8 ee fe ff ff       	call   6c9c <_ZNKSt7__cxx1112basic_stringIcSt11char_traitsIcESaIcEE6lengthEv>
    6dae:	48 89 c2             	mov    rdx,rax
    6db1:	48 8b 45 b8          	mov    rax,QWORD PTR [rbp-0x48]
    6db5:	48 89 d6             	mov    rsi,rdx
    6db8:	48 89 c7             	mov    rdi,rax
    6dbb:	e8 c8 19 00 00       	call   8788 <_ZNSt7__cxx1112basic_stringIcSt11char_traitsIcESaIcEE9_M_lengthEm>
    6dc0:	48 8b 45 b0          	mov    rax,QWORD PTR [rbp-0x50]
    6dc4:	48 89 45 d8          	mov    QWORD PTR [rbp-0x28],rax
    6dc8:	48 8b 45 d8          	mov    rax,QWORD PTR [rbp-0x28]
    6dcc:	48 89 45 e0          	mov    QWORD PTR [rbp-0x20],rax
    6dd0:	e8 d4 d6 ff ff       	call   44a9 <_ZSt21is_constant_evaluatedv>
    6dd5:	84 c0                	test   al,al
    6dd7:	74 28                	je     6e01 <_ZNSt7__cxx1112basic_stringIcSt11char_traitsIcESaIcEEC1EOS4_+0x153>
    6dd9:	48 c7 45 e8 00 00 00 	mov    QWORD PTR [rbp-0x18],0x0
    6de0:	00 
    6de1:	eb 17                	jmp    6dfa <_ZNSt7__cxx1112basic_stringIcSt11char_traitsIcESaIcEEC1EOS4_+0x14c>
    6de3:	48 8b 55 e0          	mov    rdx,QWORD PTR [rbp-0x20]
    6de7:	48 8b 45 e8          	mov    rax,QWORD PTR [rbp-0x18]
    6deb:	48 01 d0             	add    rax,rdx
    6dee:	48 83 c0 10          	add    rax,0x10
    6df2:	c6 00 00             	mov    BYTE PTR [rax],0x0
    6df5:	48 83 45 e8 01       	add    QWORD PTR [rbp-0x18],0x1
    6dfa:	48 83 7d e8 0f       	cmp    QWORD PTR [rbp-0x18],0xf
    6dff:	76 e2                	jbe    6de3 <_ZNSt7__cxx1112basic_stringIcSt11char_traitsIcESaIcEEC1EOS4_+0x135>
    6e01:	90                   	nop
    6e02:	48 8b 45 d8          	mov    rax,QWORD PTR [rbp-0x28]
    6e06:	48 89 c7             	mov    rdi,rax
    6e09:	e8 7c da ff ff       	call   488a <_ZNSt7__cxx1112basic_stringIcSt11char_traitsIcESaIcEE13_M_local_dataEv>
    6e0e:	48 89 c2             	mov    rdx,rax
    6e11:	90                   	nop
    6e12:	48 8b 45 b0          	mov    rax,QWORD PTR [rbp-0x50]
    6e16:	48 89 d6             	mov    rsi,rdx
    6e19:	48 89 c7             	mov    rdi,rax
    6e1c:	e8 db 19 00 00       	call   87fc <_ZNSt7__cxx1112basic_stringIcSt11char_traitsIcESaIcEE7_M_dataEPc>
    6e21:	48 8b 45 b0          	mov    rax,QWORD PTR [rbp-0x50]
    6e25:	be 00 00 00 00       	mov    esi,0x0
    6e2a:	48 89 c7             	mov    rdi,rax
    6e2d:	e8 8a fa ff ff       	call   68bc <_ZNSt7__cxx1112basic_stringIcSt11char_traitsIcESaIcEE13_M_set_lengthEm>
    6e32:	90                   	nop
    6e33:	48 83 c4 40          	add    rsp,0x40
    6e37:	5b                   	pop    rbx
    6e38:	41 5c                	pop    r12
    6e3a:	5d                   	pop    rbp
    6e3b:	c3                   	ret

0000000000006e3c <_ZNSt8__detail18__to_chars_10_implImEEvPcjT_>:
    6e3c:	55                   	push   rbp
    6e3d:	48 89 e5             	mov    rbp,rsp
    6e40:	48 81 ec 20 01 00 00 	sub    rsp,0x120
    6e47:	48 89 bd f8 fe ff ff 	mov    QWORD PTR [rbp-0x108],rdi
    6e4e:	89 b5 f4 fe ff ff    	mov    DWORD PTR [rbp-0x10c],esi
    6e54:	48 89 95 e8 fe ff ff 	mov    QWORD PTR [rbp-0x118],rdx
    6e5b:	64 48 8b 04 25 28 00 	mov    rax,QWORD PTR fs:0x28
    6e62:	00 00 
    6e64:	48 89 45 f8          	mov    QWORD PTR [rbp-0x8],rax
    6e68:	31 c0                	xor    eax,eax
    6e6a:	48 b8 30 30 30 31 30 	movabs rax,0x3330323031303030
    6e71:	32 30 33 
    6e74:	48 ba 30 34 30 35 30 	movabs rdx,0x3730363035303430
    6e7b:	36 30 37 
    6e7e:	48 89 85 20 ff ff ff 	mov    QWORD PTR [rbp-0xe0],rax
    6e85:	48 89 95 28 ff ff ff 	mov    QWORD PTR [rbp-0xd8],rdx
    6e8c:	48 b8 30 38 30 39 31 	movabs rax,0x3131303139303830
    6e93:	30 31 31 
    6e96:	48 ba 31 32 31 33 31 	movabs rdx,0x3531343133313231
    6e9d:	34 31 35 
    6ea0:	48 89 85 30 ff ff ff 	mov    QWORD PTR [rbp-0xd0],rax
    6ea7:	48 89 95 38 ff ff ff 	mov    QWORD PTR [rbp-0xc8],rdx
    6eae:	48 b8 31 36 31 37 31 	movabs rax,0x3931383137313631
    6eb5:	38 31 39 
    6eb8:	48 ba 32 30 32 31 32 	movabs rdx,0x3332323231323032
    6ebf:	32 32 33 
    6ec2:	48 89 85 40 ff ff ff 	mov    QWORD PTR [rbp-0xc0],rax
    6ec9:	48 89 95 48 ff ff ff 	mov    QWORD PTR [rbp-0xb8],rdx
    6ed0:	48 b8 32 34 32 35 32 	movabs rax,0x3732363235323432
    6ed7:	36 32 37 
    6eda:	48 ba 32 38 32 39 33 	movabs rdx,0x3133303339323832
    6ee1:	30 33 31 
    6ee4:	48 89 85 50 ff ff ff 	mov    QWORD PTR [rbp-0xb0],rax
    6eeb:	48 89 95 58 ff ff ff 	mov    QWORD PTR [rbp-0xa8],rdx
    6ef2:	48 b8 33 32 33 33 33 	movabs rax,0x3533343333333233
    6ef9:	34 33 35 
    6efc:	48 ba 33 36 33 37 33 	movabs rdx,0x3933383337333633
    6f03:	38 33 39 
    6f06:	48 89 85 60 ff ff ff 	mov    QWORD PTR [rbp-0xa0],rax
    6f0d:	48 89 95 68 ff ff ff 	mov    QWORD PTR [rbp-0x98],rdx
    6f14:	48 b8 34 30 34 31 34 	movabs rax,0x3334323431343034
    6f1b:	32 34 33 
    6f1e:	48 ba 34 34 34 35 34 	movabs rdx,0x3734363435343434
    6f25:	36 34 37 
    6f28:	48 89 85 70 ff ff ff 	mov    QWORD PTR [rbp-0x90],rax
    6f2f:	48 89 95 78 ff ff ff 	mov    QWORD PTR [rbp-0x88],rdx
    6f36:	48 b8 34 38 34 39 35 	movabs rax,0x3135303539343834
    6f3d:	30 35 31 
    6f40:	48 ba 35 32 35 33 35 	movabs rdx,0x3535343533353235
    6f47:	34 35 35 
    6f4a:	48 89 45 80          	mov    QWORD PTR [rbp-0x80],rax
    6f4e:	48 89 55 88          	mov    QWORD PTR [rbp-0x78],rdx
    6f52:	48 b8 35 36 35 37 35 	movabs rax,0x3935383537353635
    6f59:	38 35 39 
    6f5c:	48 ba 36 30 36 31 36 	movabs rdx,0x3336323631363036
    6f63:	32 36 33 
    6f66:	48 89 45 90          	mov    QWORD PTR [rbp-0x70],rax
    6f6a:	48 89 55 98          	mov    QWORD PTR [rbp-0x68],rdx
    6f6e:	48 b8 36 34 36 35 36 	movabs rax,0x3736363635363436
    6f75:	36 36 37 
    6f78:	48 ba 36 38 36 39 37 	movabs rdx,0x3137303739363836
    6f7f:	30 37 31 
    6f82:	48 89 45 a0          	mov    QWORD PTR [rbp-0x60],rax
    6f86:	48 89 55 a8          	mov    QWORD PTR [rbp-0x58],rdx
    6f8a:	48 b8 37 32 37 33 37 	movabs rax,0x3537343733373237
    6f91:	34 37 35 
    6f94:	48 ba 37 36 37 37 37 	movabs rdx,0x3937383737373637
    6f9b:	38 37 39 
    6f9e:	48 89 45 b0          	mov    QWORD PTR [rbp-0x50],rax
    6fa2:	48 89 55 b8          	mov    QWORD PTR [rbp-0x48],rdx
    6fa6:	48 b8 38 30 38 31 38 	movabs rax,0x3338323831383038
    6fad:	32 38 33 
    6fb0:	48 ba 38 34 38 35 38 	movabs rdx,0x3738363835383438
    6fb7:	36 38 37 
    6fba:	48 89 45 c0          	mov    QWORD PTR [rbp-0x40],rax
    6fbe:	48 89 55 c8          	mov    QWORD PTR [rbp-0x38],rdx
    6fc2:	48 b8 38 38 38 39 39 	movabs rax,0x3139303939383838
    6fc9:	30 39 31 
    6fcc:	48 ba 39 32 39 33 39 	movabs rdx,0x3539343933393239
    6fd3:	34 39 35 
    6fd6:	48 89 45 d0          	mov    QWORD PTR [rbp-0x30],rax
    6fda:	48 89 55 d8          	mov    QWORD PTR [rbp-0x28],rdx
    6fde:	48 b8 32 39 33 39 34 	movabs rax,0x3935393439333932
    6fe5:	39 35 39 
    6fe8:	48 ba 36 39 37 39 38 	movabs rdx,0x39393839373936
    6fef:	39 39 00 
    6ff2:	48 89 45 d9          	mov    QWORD PTR [rbp-0x27],rax
    6ff6:	48 89 55 e1          	mov    QWORD PTR [rbp-0x1f],rdx
    6ffa:	8b 85 f4 fe ff ff    	mov    eax,DWORD PTR [rbp-0x10c]
    7000:	83 e8 01             	sub    eax,0x1
    7003:	89 85 0c ff ff ff    	mov    DWORD PTR [rbp-0xf4],eax
    7009:	e9 c6 00 00 00       	jmp    70d4 <_ZNSt8__detail18__to_chars_10_implImEEvPcjT_+0x298>
    700e:	48 8b 8d e8 fe ff ff 	mov    rcx,QWORD PTR [rbp-0x118]
    7015:	48 89 c8             	mov    rax,rcx
    7018:	48 c1 e8 02          	shr    rax,0x2
    701c:	48 ba c3 f5 28 5c 8f 	movabs rdx,0x28f5c28f5c28f5c3
    7023:	c2 f5 28 
    7026:	48 f7 e2             	mul    rdx
    7029:	48 c1 ea 02          	shr    rdx,0x2
    702d:	48 89 d0             	mov    rax,rdx
    7030:	48 c1 e0 02          	shl    rax,0x2
    7034:	48 01 d0             	add    rax,rdx
    7037:	48 8d 14 85 00 00 00 	lea    rdx,[rax*4+0x0]
    703e:	00 
    703f:	48 01 d0             	add    rax,rdx
    7042:	48 c1 e0 02          	shl    rax,0x2
    7046:	48 29 c1             	sub    rcx,rax
    7049:	48 89 ca             	mov    rdx,rcx
    704c:	48 8d 04 12          	lea    rax,[rdx+rdx*1]
    7050:	48 89 85 18 ff ff ff 	mov    QWORD PTR [rbp-0xe8],rax
    7057:	48 8b 85 e8 fe ff ff 	mov    rax,QWORD PTR [rbp-0x118]
    705e:	48 c1 e8 02          	shr    rax,0x2
    7062:	48 ba c3 f5 28 5c 8f 	movabs rdx,0x28f5c28f5c28f5c3
    7069:	c2 f5 28 
    706c:	48 f7 e2             	mul    rdx
    706f:	48 89 d0             	mov    rax,rdx
    7072:	48 c1 e8 02          	shr    rax,0x2
    7076:	48 89 85 e8 fe ff ff 	mov    QWORD PTR [rbp-0x118],rax
    707d:	48 8b 85 18 ff ff ff 	mov    rax,QWORD PTR [rbp-0xe8]
    7084:	48 83 c0 01          	add    rax,0x1
    7088:	8b 8d 0c ff ff ff    	mov    ecx,DWORD PTR [rbp-0xf4]
    708e:	48 8b 95 f8 fe ff ff 	mov    rdx,QWORD PTR [rbp-0x108]
    7095:	48 01 ca             	add    rdx,rcx
    7098:	0f b6 84 05 20 ff ff 	movzx  eax,BYTE PTR [rbp+rax*1-0xe0]
    709f:	ff 
    70a0:	88 02                	mov    BYTE PTR [rdx],al
    70a2:	8b 85 0c ff ff ff    	mov    eax,DWORD PTR [rbp-0xf4]
    70a8:	83 e8 01             	sub    eax,0x1
    70ab:	89 c2                	mov    edx,eax
    70ad:	48 8b 85 f8 fe ff ff 	mov    rax,QWORD PTR [rbp-0x108]
    70b4:	48 01 c2             	add    rdx,rax
    70b7:	48 8d 8d 20 ff ff ff 	lea    rcx,[rbp-0xe0]
    70be:	48 8b 85 18 ff ff ff 	mov    rax,QWORD PTR [rbp-0xe8]
    70c5:	48 01 c8             	add    rax,rcx
    70c8:	0f b6 00             	movzx  eax,BYTE PTR [rax]
    70cb:	88 02                	mov    BYTE PTR [rdx],al
    70cd:	83 ad 0c ff ff ff 02 	sub    DWORD PTR [rbp-0xf4],0x2
    70d4:	48 83 bd e8 fe ff ff 	cmp    QWORD PTR [rbp-0x118],0x63
    70db:	63 
    70dc:	0f 87 2c ff ff ff    	ja     700e <_ZNSt8__detail18__to_chars_10_implImEEvPcjT_+0x1d2>
    70e2:	48 83 bd e8 fe ff ff 	cmp    QWORD PTR [rbp-0x118],0x9
    70e9:	09 
    70ea:	76 50                	jbe    713c <_ZNSt8__detail18__to_chars_10_implImEEvPcjT_+0x300>
    70ec:	48 8b 85 e8 fe ff ff 	mov    rax,QWORD PTR [rbp-0x118]
    70f3:	48 01 c0             	add    rax,rax
    70f6:	48 89 85 10 ff ff ff 	mov    QWORD PTR [rbp-0xf0],rax
    70fd:	48 8b 85 10 ff ff ff 	mov    rax,QWORD PTR [rbp-0xf0]
    7104:	48 83 c0 01          	add    rax,0x1
    7108:	48 8b 95 f8 fe ff ff 	mov    rdx,QWORD PTR [rbp-0x108]
    710f:	48 83 c2 01          	add    rdx,0x1
    7113:	0f b6 84 05 20 ff ff 	movzx  eax,BYTE PTR [rbp+rax*1-0xe0]
    711a:	ff 
    711b:	88 02                	mov    BYTE PTR [rdx],al
    711d:	48 8d 95 20 ff ff ff 	lea    rdx,[rbp-0xe0]
    7124:	48 8b 85 10 ff ff ff 	mov    rax,QWORD PTR [rbp-0xf0]
    712b:	48 01 d0             	add    rax,rdx
    712e:	0f b6 10             	movzx  edx,BYTE PTR [rax]
    7131:	48 8b 85 f8 fe ff ff 	mov    rax,QWORD PTR [rbp-0x108]
    7138:	88 10                	mov    BYTE PTR [rax],dl
    713a:	eb 15                	jmp    7151 <_ZNSt8__detail18__to_chars_10_implImEEvPcjT_+0x315>
    713c:	48 8b 85 e8 fe ff ff 	mov    rax,QWORD PTR [rbp-0x118]
    7143:	83 c0 30             	add    eax,0x30
    7146:	89 c2                	mov    edx,eax
    7148:	48 8b 85 f8 fe ff ff 	mov    rax,QWORD PTR [rbp-0x108]
    714f:	88 10                	mov    BYTE PTR [rax],dl
    7151:	90                   	nop
    7152:	48 8b 45 f8          	mov    rax,QWORD PTR [rbp-0x8]
    7156:	64 48 2b 04 25 28 00 	sub    rax,QWORD PTR fs:0x28
    715d:	00 00 
    715f:	74 05                	je     7166 <_ZNSt8__detail18__to_chars_10_implImEEvPcjT_+0x32a>
    7161:	e8 fa d0 ff ff       	call   4260 <__stack_chk_fail@plt>
    7166:	c9                   	leave
    7167:	c3                   	ret

0000000000007168 <_ZNSt8__detail18__to_chars_10_implIyEEvPcjT_>:
    7168:	55                   	push   rbp
    7169:	48 89 e5             	mov    rbp,rsp
    716c:	48 81 ec 20 01 00 00 	sub    rsp,0x120
    7173:	48 89 bd f8 fe ff ff 	mov    QWORD PTR [rbp-0x108],rdi
    717a:	89 b5 f4 fe ff ff    	mov    DWORD PTR [rbp-0x10c],esi
    7180:	48 89 95 e8 fe ff ff 	mov    QWORD PTR [rbp-0x118],rdx
    7187:	64 48 8b 04 25 28 00 	mov    rax,QWORD PTR fs:0x28
    718e:	00 00 
    7190:	48 89 45 f8          	mov    QWORD PTR [rbp-0x8],rax
    7194:	31 c0                	xor    eax,eax
    7196:	48 b8 30 30 30 31 30 	movabs rax,0x3330323031303030
    719d:	32 30 33 
    71a0:	48 ba 30 34 30 35 30 	movabs rdx,0x3730363035303430
    71a7:	36 30 37 
    71aa:	48 89 85 20 ff ff ff 	mov    QWORD PTR [rbp-0xe0],rax
    71b1:	48 89 95 28 ff ff ff 	mov    QWORD PTR [rbp-0xd8],rdx
    71b8:	48 b8 30 38 30 39 31 	movabs rax,0x3131303139303830
    71bf:	30 31 31 
    71c2:	48 ba 31 32 31 33 31 	movabs rdx,0x3531343133313231
    71c9:	34 31 35 
    71cc:	48 89 85 30 ff ff ff 	mov    QWORD PTR [rbp-0xd0],rax
    71d3:	48 89 95 38 ff ff ff 	mov    QWORD PTR [rbp-0xc8],rdx
    71da:	48 b8 31 36 31 37 31 	movabs rax,0x3931383137313631
    71e1:	38 31 39 
    71e4:	48 ba 32 30 32 31 32 	movabs rdx,0x3332323231323032
    71eb:	32 32 33 
    71ee:	48 89 85 40 ff ff ff 	mov    QWORD PTR [rbp-0xc0],rax
    71f5:	48 89 95 48 ff ff ff 	mov    QWORD PTR [rbp-0xb8],rdx
    71fc:	48 b8 32 34 32 35 32 	movabs rax,0x3732363235323432
    7203:	36 32 37 
    7206:	48 ba 32 38 32 39 33 	movabs rdx,0x3133303339323832
    720d:	30 33 31 
    7210:	48 89 85 50 ff ff ff 	mov    QWORD PTR [rbp-0xb0],rax
    7217:	48 89 95 58 ff ff ff 	mov    QWORD PTR [rbp-0xa8],rdx
    721e:	48 b8 33 32 33 33 33 	movabs rax,0x3533343333333233
    7225:	34 33 35 
    7228:	48 ba 33 36 33 37 33 	movabs rdx,0x3933383337333633
    722f:	38 33 39 
    7232:	48 89 85 60 ff ff ff 	mov    QWORD PTR [rbp-0xa0],rax
    7239:	48 89 95 68 ff ff ff 	mov    QWORD PTR [rbp-0x98],rdx
    7240:	48 b8 34 30 34 31 34 	movabs rax,0x3334323431343034
    7247:	32 34 33 
    724a:	48 ba 34 34 34 35 34 	movabs rdx,0x3734363435343434
    7251:	36 34 37 
    7254:	48 89 85 70 ff ff ff 	mov    QWORD PTR [rbp-0x90],rax
    725b:	48 89 95 78 ff ff ff 	mov    QWORD PTR [rbp-0x88],rdx
    7262:	48 b8 34 38 34 39 35 	movabs rax,0x3135303539343834
    7269:	30 35 31 
    726c:	48 ba 35 32 35 33 35 	movabs rdx,0x3535343533353235
    7273:	34 35 35 
    7276:	48 89 45 80          	mov    QWORD PTR [rbp-0x80],rax
    727a:	48 89 55 88          	mov    QWORD PTR [rbp-0x78],rdx
    727e:	48 b8 35 36 35 37 35 	movabs rax,0x3935383537353635
    7285:	38 35 39 
    7288:	48 ba 36 30 36 31 36 	movabs rdx,0x3336323631363036
    728f:	32 36 33 
    7292:	48 89 45 90          	mov    QWORD PTR [rbp-0x70],rax
    7296:	48 89 55 98          	mov    QWORD PTR [rbp-0x68],rdx
    729a:	48 b8 36 34 36 35 36 	movabs rax,0x3736363635363436
    72a1:	36 36 37 
    72a4:	48 ba 36 38 36 39 37 	movabs rdx,0x3137303739363836
    72ab:	30 37 31 
    72ae:	48 89 45 a0          	mov    QWORD PTR [rbp-0x60],rax
    72b2:	48 89 55 a8          	mov    QWORD PTR [rbp-0x58],rdx
    72b6:	48 b8 37 32 37 33 37 	movabs rax,0x3537343733373237
    72bd:	34 37 35 
    72c0:	48 ba 37 36 37 37 37 	movabs rdx,0x3937383737373637
    72c7:	38 37 39 
    72ca:	48 89 45 b0          	mov    QWORD PTR [rbp-0x50],rax
    72ce:	48 89 55 b8          	mov    QWORD PTR [rbp-0x48],rdx
    72d2:	48 b8 38 30 38 31 38 	movabs rax,0x3338323831383038
    72d9:	32 38 33 
    72dc:	48 ba 38 34 38 35 38 	movabs rdx,0x3738363835383438
    72e3:	36 38 37 
    72e6:	48 89 45 c0          	mov    QWORD PTR [rbp-0x40],rax
    72ea:	48 89 55 c8          	mov    QWORD PTR [rbp-0x38],rdx
    72ee:	48 b8 38 38 38 39 39 	movabs rax,0x3139303939383838
    72f5:	30 39 31 
    72f8:	48 ba 39 32 39 33 39 	movabs rdx,0x3539343933393239
    72ff:	34 39 35 
    7302:	48 89 45 d0          	mov    QWORD PTR [rbp-0x30],rax
    7306:	48 89 55 d8          	mov    QWORD PTR [rbp-0x28],rdx
    730a:	48 b8 32 39 33 39 34 	movabs rax,0x3935393439333932
    7311:	39 35 39 
    7314:	48 ba 36 39 37 39 38 	movabs rdx,0x39393839373936
    731b:	39 39 00 
    731e:	48 89 45 d9          	mov    QWORD PTR [rbp-0x27],rax
    7322:	48 89 55 e1          	mov    QWORD PTR [rbp-0x1f],rdx
    7326:	8b 85 f4 fe ff ff    	mov    eax,DWORD PTR [rbp-0x10c]
    732c:	83 e8 01             	sub    eax,0x1
    732f:	89 85 0c ff ff ff    	mov    DWORD PTR [rbp-0xf4],eax
    7335:	e9 c6 00 00 00       	jmp    7400 <_ZNSt8__detail18__to_chars_10_implIyEEvPcjT_+0x298>
    733a:	48 8b 8d e8 fe ff ff 	mov    rcx,QWORD PTR [rbp-0x118]
    7341:	48 89 c8             	mov    rax,rcx
    7344:	48 c1 e8 02          	shr    rax,0x2
    7348:	48 ba c3 f5 28 5c 8f 	movabs rdx,0x28f5c28f5c28f5c3
    734f:	c2 f5 28 
    7352:	48 f7 e2             	mul    rdx
    7355:	48 c1 ea 02          	shr    rdx,0x2
    7359:	48 89 d0             	mov    rax,rdx
    735c:	48 c1 e0 02          	shl    rax,0x2
    7360:	48 01 d0             	add    rax,rdx
    7363:	48 8d 14 85 00 00 00 	lea    rdx,[rax*4+0x0]
    736a:	00 
    736b:	48 01 d0             	add    rax,rdx
    736e:	48 c1 e0 02          	shl    rax,0x2
    7372:	48 29 c1             	sub    rcx,rax
    7375:	48 89 ca             	mov    rdx,rcx
    7378:	48 8d 04 12          	lea    rax,[rdx+rdx*1]
    737c:	48 89 85 18 ff ff ff 	mov    QWORD PTR [rbp-0xe8],rax
    7383:	48 8b 85 e8 fe ff ff 	mov    rax,QWORD PTR [rbp-0x118]
    738a:	48 c1 e8 02          	shr    rax,0x2
    738e:	48 ba c3 f5 28 5c 8f 	movabs rdx,0x28f5c28f5c28f5c3
    7395:	c2 f5 28 
    7398:	48 f7 e2             	mul    rdx
    739b:	48 89 d0             	mov    rax,rdx
    739e:	48 c1 e8 02          	shr    rax,0x2
    73a2:	48 89 85 e8 fe ff ff 	mov    QWORD PTR [rbp-0x118],rax
    73a9:	48 8b 85 18 ff ff ff 	mov    rax,QWORD PTR [rbp-0xe8]
    73b0:	48 83 c0 01          	add    rax,0x1
    73b4:	8b 8d 0c ff ff ff    	mov    ecx,DWORD PTR [rbp-0xf4]
    73ba:	48 8b 95 f8 fe ff ff 	mov    rdx,QWORD PTR [rbp-0x108]
    73c1:	48 01 ca             	add    rdx,rcx
    73c4:	0f b6 84 05 20 ff ff 	movzx  eax,BYTE PTR [rbp+rax*1-0xe0]
    73cb:	ff 
    73cc:	88 02                	mov    BYTE PTR [rdx],al
    73ce:	8b 85 0c ff ff ff    	mov    eax,DWORD PTR [rbp-0xf4]
    73d4:	83 e8 01             	sub    eax,0x1
    73d7:	89 c2                	mov    edx,eax
    73d9:	48 8b 85 f8 fe ff ff 	mov    rax,QWORD PTR [rbp-0x108]
    73e0:	48 01 c2             	add    rdx,rax
    73e3:	48 8d 8d 20 ff ff ff 	lea    rcx,[rbp-0xe0]
    73ea:	48 8b 85 18 ff ff ff 	mov    rax,QWORD PTR [rbp-0xe8]
    73f1:	48 01 c8             	add    rax,rcx
    73f4:	0f b6 00             	movzx  eax,BYTE PTR [rax]
    73f7:	88 02                	mov    BYTE PTR [rdx],al
    73f9:	83 ad 0c ff ff ff 02 	sub    DWORD PTR [rbp-0xf4],0x2
    7400:	48 83 bd e8 fe ff ff 	cmp    QWORD PTR [rbp-0x118],0x63
    7407:	63 
    7408:	0f 87 2c ff ff ff    	ja     733a <_ZNSt8__detail18__to_chars_10_implIyEEvPcjT_+0x1d2>
    740e:	48 83 bd e8 fe ff ff 	cmp    QWORD PTR [rbp-0x118],0x9
    7415:	09 
    7416:	76 50                	jbe    7468 <_ZNSt8__detail18__to_chars_10_implIyEEvPcjT_+0x300>
    7418:	48 8b 85 e8 fe ff ff 	mov    rax,QWORD PTR [rbp-0x118]
    741f:	48 01 c0             	add    rax,rax
    7422:	48 89 85 10 ff ff ff 	mov    QWORD PTR [rbp-0xf0],rax
    7429:	48 8b 85 10 ff ff ff 	mov    rax,QWORD PTR [rbp-0xf0]
    7430:	48 83 c0 01          	add    rax,0x1
    7434:	48 8b 95 f8 fe ff ff 	mov    rdx,QWORD PTR [rbp-0x108]
    743b:	48 83 c2 01          	add    rdx,0x1
    743f:	0f b6 84 05 20 ff ff 	movzx  eax,BYTE PTR [rbp+rax*1-0xe0]
    7446:	ff 
    7447:	88 02                	mov    BYTE PTR [rdx],al
    7449:	48 8d 95 20 ff ff ff 	lea    rdx,[rbp-0xe0]
    7450:	48 8b 85 10 ff ff ff 	mov    rax,QWORD PTR [rbp-0xf0]
    7457:	48 01 d0             	add    rax,rdx
    745a:	0f b6 10             	movzx  edx,BYTE PTR [rax]
    745d:	48 8b 85 f8 fe ff ff 	mov    rax,QWORD PTR [rbp-0x108]
    7464:	88 10                	mov    BYTE PTR [rax],dl
    7466:	eb 15                	jmp    747d <_ZNSt8__detail18__to_chars_10_implIyEEvPcjT_+0x315>
    7468:	48 8b 85 e8 fe ff ff 	mov    rax,QWORD PTR [rbp-0x118]
    746f:	83 c0 30             	add    eax,0x30
    7472:	89 c2                	mov    edx,eax
    7474:	48 8b 85 f8 fe ff ff 	mov    rax,QWORD PTR [rbp-0x108]
    747b:	88 10                	mov    BYTE PTR [rax],dl
    747d:	90                   	nop
    747e:	48 8b 45 f8          	mov    rax,QWORD PTR [rbp-0x8]
    7482:	64 48 2b 04 25 28 00 	sub    rax,QWORD PTR fs:0x28
    7489:	00 00 
    748b:	74 05                	je     7492 <_ZNSt8__detail18__to_chars_10_implIyEEvPcjT_+0x32a>
    748d:	e8 ce cd ff ff       	call   4260 <__stack_chk_fail@plt>
    7492:	c9                   	leave
    7493:	c3                   	ret

0000000000007494 <_ZNKSt7__cxx1112basic_stringIcSt11char_traitsIcESaIcEEcvSt17basic_string_viewIcS2_EEv>:
    7494:	55                   	push   rbp
    7495:	48 89 e5             	mov    rbp,rsp
    7498:	53                   	push   rbx
    7499:	48 83 ec 38          	sub    rsp,0x38
    749d:	48 89 7d c8          	mov    QWORD PTR [rbp-0x38],rdi
    74a1:	64 48 8b 04 25 28 00 	mov    rax,QWORD PTR fs:0x28
    74a8:	00 00 
    74aa:	48 89 45 e8          	mov    QWORD PTR [rbp-0x18],rax
    74ae:	31 c0                	xor    eax,eax
    74b0:	48 8b 45 c8          	mov    rax,QWORD PTR [rbp-0x38]
    74b4:	48 89 c7             	mov    rdi,rax
    74b7:	e8 f8 d6 ff ff       	call   4bb4 <_ZNKSt7__cxx1112basic_stringIcSt11char_traitsIcESaIcEE4sizeEv>
    74bc:	48 89 c3             	mov    rbx,rax
    74bf:	48 8b 45 c8          	mov    rax,QWORD PTR [rbp-0x38]
    74c3:	48 89 c7             	mov    rdi,rax
    74c6:	e8 67 13 00 00       	call   8832 <_ZNKSt7__cxx1112basic_stringIcSt11char_traitsIcESaIcEE4dataEv>
    74cb:	48 89 c1             	mov    rcx,rax
    74ce:	48 8d 45 d0          	lea    rax,[rbp-0x30]
    74d2:	48 89 da             	mov    rdx,rbx
    74d5:	48 89 ce             	mov    rsi,rcx
    74d8:	48 89 c7             	mov    rdi,rax
    74db:	e8 a0 f3 ff ff       	call   6880 <_ZNSt17basic_string_viewIcSt11char_traitsIcEEC1EPKcm>
    74e0:	48 8b 45 d0          	mov    rax,QWORD PTR [rbp-0x30]
    74e4:	48 8b 55 d8          	mov    rdx,QWORD PTR [rbp-0x28]
    74e8:	48 8b 4d e8          	mov    rcx,QWORD PTR [rbp-0x18]
    74ec:	64 48 2b 0c 25 28 00 	sub    rcx,QWORD PTR fs:0x28
    74f3:	00 00 
    74f5:	74 05                	je     74fc <_ZNKSt7__cxx1112basic_stringIcSt11char_traitsIcESaIcEEcvSt17basic_string_viewIcS2_EEv+0x68>
    74f7:	e8 64 cd ff ff       	call   4260 <__stack_chk_fail@plt>
    74fc:	48 8b 5d f8          	mov    rbx,QWORD PTR [rbp-0x8]
    7500:	c9                   	leave
    7501:	c3                   	ret

0000000000007502 <_ZNSt7__cxx1112basic_stringIcSt11char_traitsIcESaIcEE12_Alloc_hiderC1EPcRKS3_>:
    7502:	55                   	push   rbp
    7503:	48 89 e5             	mov    rbp,rsp
    7506:	48 89 7d d8          	mov    QWORD PTR [rbp-0x28],rdi
    750a:	48 89 75 d0          	mov    QWORD PTR [rbp-0x30],rsi
    750e:	48 89 55 c8          	mov    QWORD PTR [rbp-0x38],rdx
    7512:	48 8b 45 d8          	mov    rax,QWORD PTR [rbp-0x28]
    7516:	48 89 45 e0          	mov    QWORD PTR [rbp-0x20],rax
    751a:	48 8b 45 c8          	mov    rax,QWORD PTR [rbp-0x38]
    751e:	48 89 45 e8          	mov    QWORD PTR [rbp-0x18],rax
    7522:	48 8b 45 e0          	mov    rax,QWORD PTR [rbp-0x20]
    7526:	48 89 45 f0          	mov    QWORD PTR [rbp-0x10],rax
    752a:	48 8b 45 e8          	mov    rax,QWORD PTR [rbp-0x18]
    752e:	48 89 45 f8          	mov    QWORD PTR [rbp-0x8],rax
    7532:	90                   	nop
    7533:	90                   	nop
    7534:	48 8b 45 d8          	mov    rax,QWORD PTR [rbp-0x28]
    7538:	48 8b 55 d0          	mov    rdx,QWORD PTR [rbp-0x30]
    753c:	48 89 10             	mov    QWORD PTR [rax],rdx
    753f:	90                   	nop
    7540:	5d                   	pop    rbp
    7541:	c3                   	ret

0000000000007542 <_ZSt11upper_boundIPKDiDiET_S2_S2_RKT0_>:
    7542:	55                   	push   rbp
    7543:	48 89 e5             	mov    rbp,rsp
    7546:	48 83 ec 20          	sub    rsp,0x20
    754a:	48 89 7d f8          	mov    QWORD PTR [rbp-0x8],rdi
    754e:	48 89 75 f0          	mov    QWORD PTR [rbp-0x10],rsi
    7552:	48 89 55 e8          	mov    QWORD PTR [rbp-0x18],rdx
    7556:	e8 96 cf ff ff       	call   44f1 <_ZN9__gnu_cxx5__ops15__val_less_iterEv>
    755b:	48 8b 55 e8          	mov    rdx,QWORD PTR [rbp-0x18]
    755f:	48 8b 4d f0          	mov    rcx,QWORD PTR [rbp-0x10]
    7563:	48 8b 45 f8          	mov    rax,QWORD PTR [rbp-0x8]
    7567:	48 89 ce             	mov    rsi,rcx
    756a:	48 89 c7             	mov    rdi,rax
    756d:	e8 e8 12 00 00       	call   885a <_ZSt13__upper_boundIPKDiDiN9__gnu_cxx5__ops14_Val_less_iterEET_S5_S5_RKT0_T1_>
    7572:	c9                   	leave
    7573:	c3                   	ret

0000000000007574 <_ZSt11lower_boundIPKjjET_S2_S2_RKT0_>:
    7574:	55                   	push   rbp
    7575:	48 89 e5             	mov    rbp,rsp
    7578:	48 83 ec 20          	sub    rsp,0x20
    757c:	48 89 7d f8          	mov    QWORD PTR [rbp-0x8],rdi
    7580:	48 89 75 f0          	mov    QWORD PTR [rbp-0x10],rsi
    7584:	48 89 55 e8          	mov    QWORD PTR [rbp-0x18],rdx
    7588:	e8 5d cf ff ff       	call   44ea <_ZN9__gnu_cxx5__ops15__iter_less_valEv>
    758d:	48 8b 55 e8          	mov    rdx,QWORD PTR [rbp-0x18]
    7591:	48 8b 4d f0          	mov    rcx,QWORD PTR [rbp-0x10]
    7595:	48 8b 45 f8          	mov    rax,QWORD PTR [rbp-0x8]
    7599:	48 89 ce             	mov    rsi,rcx
    759c:	48 89 c7             	mov    rdi,rax
    759f:	e8 b7 13 00 00       	call   895b <_ZSt13__lower_boundIPKjjN9__gnu_cxx5__ops14_Iter_less_valEET_S5_S5_RKT0_T1_>
    75a4:	c9                   	leave
    75a5:	c3                   	ret

00000000000075a6 <_ZSt4findIPKDiDiET_S2_S2_RKT0_>:
    75a6:	55                   	push   rbp
    75a7:	48 89 e5             	mov    rbp,rsp
    75aa:	48 83 ec 20          	sub    rsp,0x20
    75ae:	48 89 7d f8          	mov    QWORD PTR [rbp-0x8],rdi
    75b2:	48 89 75 f0          	mov    QWORD PTR [rbp-0x10],rsi
    75b6:	48 89 55 e8          	mov    QWORD PTR [rbp-0x18],rdx
    75ba:	48 8b 45 e8          	mov    rax,QWORD PTR [rbp-0x18]
    75be:	48 89 c7             	mov    rdi,rax
    75c1:	e8 96 14 00 00       	call   8a5c <_ZN9__gnu_cxx5__ops17__iter_equals_valIKDiEENS0_16_Iter_equals_valIT_EERS4_>
    75c6:	48 89 c2             	mov    rdx,rax
    75c9:	48 8b 4d f0          	mov    rcx,QWORD PTR [rbp-0x10]
    75cd:	48 8b 45 f8          	mov    rax,QWORD PTR [rbp-0x8]
    75d1:	48 89 ce             	mov    rsi,rcx
    75d4:	48 89 c7             	mov    rdi,rax
    75d7:	e8 c8 14 00 00       	call   8aa4 <_ZSt9__find_ifIPKDiN9__gnu_cxx5__ops16_Iter_equals_valIS0_EEET_S6_S6_T0_>
    75dc:	c9                   	leave
    75dd:	c3                   	ret

00000000000075de <_ZSt12construct_atISt6localeJEEDTgsnwcvPvLi0E_T_pispcl7declvalIT0_EEEEPS2_DpOS3_>:
    75de:	55                   	push   rbp
    75df:	48 89 e5             	mov    rbp,rsp
    75e2:	53                   	push   rbx
    75e3:	48 83 ec 18          	sub    rsp,0x18
    75e7:	48 89 7d e8          	mov    QWORD PTR [rbp-0x18],rdi
    75eb:	48 8b 45 e8          	mov    rax,QWORD PTR [rbp-0x18]
    75ef:	48 89 c6             	mov    rsi,rax
    75f2:	bf 08 00 00 00       	mov    edi,0x8
    75f7:	e8 dc ce ff ff       	call   44d8 <_ZnwmPv>
    75fc:	48 89 c3             	mov    rbx,rax
    75ff:	48 89 df             	mov    rdi,rbx
    7602:	e8 89 cd ff ff       	call   4390 <_ZNSt6localeC1Ev@plt>
    7607:	48 89 d8             	mov    rax,rbx
    760a:	48 8b 5d f8          	mov    rbx,QWORD PTR [rbp-0x8]
    760e:	c9                   	leave
    760f:	c3                   	ret

0000000000007610 <_ZSt4moveIRNSt8__format9_Seq_sinkINSt7__cxx1112basic_stringIcSt11char_traitsIcESaIcEEEEEEONSt16remove_referenceIT_E4typeEOSB_>:
    7610:	55                   	push   rbp
    7611:	48 89 e5             	mov    rbp,rsp
    7614:	48 89 7d f8          	mov    QWORD PTR [rbp-0x8],rdi
    7618:	48 8b 45 f8          	mov    rax,QWORD PTR [rbp-0x8]
    761c:	5d                   	pop    rbp
    761d:	c3                   	ret

000000000000761e <_ZNOSt8__format9_Seq_sinkINSt7__cxx1112basic_stringIcSt11char_traitsIcESaIcEEEE3getEv>:
    761e:	55                   	push   rbp
    761f:	48 89 e5             	mov    rbp,rsp
    7622:	53                   	push   rbx
    7623:	48 83 ec 48          	sub    rsp,0x48
    7627:	48 89 7d b8          	mov    QWORD PTR [rbp-0x48],rdi
    762b:	48 89 75 b0          	mov    QWORD PTR [rbp-0x50],rsi
    762f:	64 48 8b 04 25 28 00 	mov    rax,QWORD PTR fs:0x28
    7636:	00 00 
    7638:	48 89 45 e8          	mov    QWORD PTR [rbp-0x18],rax
    763c:	31 c0                	xor    eax,eax
    763e:	48 8b 45 b0          	mov    rax,QWORD PTR [rbp-0x50]
    7642:	48 89 45 c8          	mov    QWORD PTR [rbp-0x38],rax
    7646:	48 8b 45 c8          	mov    rax,QWORD PTR [rbp-0x38]
    764a:	48 8d 58 08          	lea    rbx,[rax+0x8]
    764e:	48 8b 45 c8          	mov    rax,QWORD PTR [rbp-0x38]
    7652:	48 83 c0 08          	add    rax,0x8
    7656:	48 89 c7             	mov    rdi,rax
    7659:	e8 ac 31 00 00       	call   a80a <_ZNKSt4spanIcLm18446744073709551615EE5beginEv>
    765e:	48 89 45 d0          	mov    QWORD PTR [rbp-0x30],rax
    7662:	48 8b 45 c8          	mov    rax,QWORD PTR [rbp-0x38]
    7666:	48 8d 50 18          	lea    rdx,[rax+0x18]
    766a:	48 8d 45 d0          	lea    rax,[rbp-0x30]
    766e:	48 89 c6             	mov    rsi,rax
    7671:	48 89 d7             	mov    rdi,rdx
    7674:	e8 d9 31 00 00       	call   a852 <_ZN9__gnu_cxxmiIPcSt4spanIcLm18446744073709551615EEEENS_17__normal_iteratorIT_T0_E15difference_typeERKS7_SA_>
    7679:	48 89 c6             	mov    rsi,rax
    767c:	48 89 df             	mov    rdi,rbx
    767f:	e8 0c 32 00 00       	call   a890 <_ZNKSt4spanIcLm18446744073709551615EE5firstEm>
    7684:	90                   	nop
    7685:	48 89 45 d0          	mov    QWORD PTR [rbp-0x30],rax
    7689:	48 89 55 d8          	mov    QWORD PTR [rbp-0x28],rdx
    768d:	48 8d 45 d0          	lea    rax,[rbp-0x30]
    7691:	48 89 c7             	mov    rdi,rax
    7694:	e8 cf dd ff ff       	call   5468 <_ZNKSt4spanIcLm18446744073709551615EE4sizeEv>
    7699:	48 85 c0             	test   rax,rax
    769c:	0f 95 c0             	setne  al
    769f:	84 c0                	test   al,al
    76a1:	74 0c                	je     76af <_ZNOSt8__format9_Seq_sinkINSt7__cxx1112basic_stringIcSt11char_traitsIcESaIcEEEE3getEv+0x91>
    76a3:	48 8b 45 b0          	mov    rax,QWORD PTR [rbp-0x50]
    76a7:	48 89 c7             	mov    rdi,rax
    76aa:	e8 25 23 00 00       	call   99d4 <_ZNSt8__format9_Seq_sinkINSt7__cxx1112basic_stringIcSt11char_traitsIcESaIcEEEE11_M_overflowEv>
    76af:	48 8b 45 b0          	mov    rax,QWORD PTR [rbp-0x50]
    76b3:	48 05 20 01 00 00    	add    rax,0x120
    76b9:	48 89 c7             	mov    rdi,rax
    76bc:	e8 8b 11 00 00       	call   884c <_ZSt4moveIRNSt7__cxx1112basic_stringIcSt11char_traitsIcESaIcEEEEONSt16remove_referenceIT_E4typeEOS8_>
    76c1:	48 89 c2             	mov    rdx,rax
    76c4:	48 8b 45 b8          	mov    rax,QWORD PTR [rbp-0x48]
    76c8:	48 89 d6             	mov    rsi,rdx
    76cb:	48 89 c7             	mov    rdi,rax
    76ce:	e8 db f5 ff ff       	call   6cae <_ZNSt7__cxx1112basic_stringIcSt11char_traitsIcESaIcEEC1EOS4_>
    76d3:	48 8b 45 e8          	mov    rax,QWORD PTR [rbp-0x18]
    76d7:	64 48 2b 04 25 28 00 	sub    rax,QWORD PTR fs:0x28
    76de:	00 00 
    76e0:	74 05                	je     76e7 <_ZNOSt8__format9_Seq_sinkINSt7__cxx1112basic_stringIcSt11char_traitsIcESaIcEEEE3getEv+0xc9>
    76e2:	e8 79 cb ff ff       	call   4260 <__stack_chk_fail@plt>
    76e7:	48 8b 45 b8          	mov    rax,QWORD PTR [rbp-0x48]
    76eb:	48 8b 5d f8          	mov    rbx,QWORD PTR [rbp-0x8]
    76ef:	c9                   	leave
    76f0:	c3                   	ret
    76f1:	90                   	nop

00000000000076f2 <_ZNKSt6ranges8__access5_DataclIRNSt7__cxx1112basic_stringIcSt11char_traitsIcESaIcEEEEEDaOT_>:
    76f2:	55                   	push   rbp
    76f3:	48 89 e5             	mov    rbp,rsp
    76f6:	48 83 ec 10          	sub    rsp,0x10
    76fa:	48 89 7d f8          	mov    QWORD PTR [rbp-0x8],rdi
    76fe:	48 89 75 f0          	mov    QWORD PTR [rbp-0x10],rsi
    7702:	48 8b 45 f0          	mov    rax,QWORD PTR [rbp-0x10]
    7706:	48 89 c7             	mov    rdi,rax
    7709:	e8 c6 23 00 00       	call   9ad4 <_ZNSt7__cxx1112basic_stringIcSt11char_traitsIcESaIcEE4dataEv>
    770e:	c9                   	leave
    770f:	c3                   	ret

0000000000007710 <_ZNKSt6ranges8__access5_SizeclIRNSt7__cxx1112basic_stringIcSt11char_traitsIcESaIcEEEEEDaOT_>:
    7710:	55                   	push   rbp
    7711:	48 89 e5             	mov    rbp,rsp
    7714:	48 83 ec 10          	sub    rsp,0x10
    7718:	48 89 7d f8          	mov    QWORD PTR [rbp-0x8],rdi
    771c:	48 89 75 f0          	mov    QWORD PTR [rbp-0x10],rsi
    7720:	48 8b 45 f0          	mov    rax,QWORD PTR [rbp-0x10]
    7724:	48 89 c7             	mov    rdi,rax
    7727:	e8 88 d4 ff ff       	call   4bb4 <_ZNKSt7__cxx1112basic_stringIcSt11char_traitsIcESaIcEE4sizeEv>
    772c:	c9                   	leave
    772d:	c3                   	ret

000000000000772e <_ZNSt8__format9_Seq_sinkINSt7__cxx1112basic_stringIcSt11char_traitsIcESaIcEEEE4viewEv>:
    772e:	55                   	push   rbp
    772f:	48 89 e5             	mov    rbp,rsp
    7732:	53                   	push   rbx
    7733:	48 83 ec 58          	sub    rsp,0x58
    7737:	48 89 7d a8          	mov    QWORD PTR [rbp-0x58],rdi
    773b:	64 48 8b 04 25 28 00 	mov    rax,QWORD PTR fs:0x28
    7742:	00 00 
    7744:	48 89 45 e8          	mov    QWORD PTR [rbp-0x18],rax
    7748:	31 c0                	xor    eax,eax
    774a:	48 8b 45 a8          	mov    rax,QWORD PTR [rbp-0x58]
    774e:	48 89 45 b8          	mov    QWORD PTR [rbp-0x48],rax
    7752:	48 8b 45 b8          	mov    rax,QWORD PTR [rbp-0x48]
    7756:	48 8d 58 08          	lea    rbx,[rax+0x8]
    775a:	48 8b 45 b8          	mov    rax,QWORD PTR [rbp-0x48]
    775e:	48 83 c0 08          	add    rax,0x8
    7762:	48 89 c7             	mov    rdi,rax
    7765:	e8 a0 30 00 00       	call   a80a <_ZNKSt4spanIcLm18446744073709551615EE5beginEv>
    776a:	48 89 45 d0          	mov    QWORD PTR [rbp-0x30],rax
    776e:	48 8b 45 b8          	mov    rax,QWORD PTR [rbp-0x48]
    7772:	48 8d 50 18          	lea    rdx,[rax+0x18]
    7776:	48 8d 45 d0          	lea    rax,[rbp-0x30]
    777a:	48 89 c6             	mov    rsi,rax
    777d:	48 89 d7             	mov    rdi,rdx
    7780:	e8 cd 30 00 00       	call   a852 <_ZN9__gnu_cxxmiIPcSt4spanIcLm18446744073709551615EEEENS_17__normal_iteratorIT_T0_E15difference_typeERKS7_SA_>
    7785:	48 89 c6             	mov    rsi,rax
    7788:	48 89 df             	mov    rdi,rbx
    778b:	e8 00 31 00 00       	call   a890 <_ZNKSt4spanIcLm18446744073709551615EE5firstEm>
    7790:	90                   	nop
    7791:	48 89 45 c0          	mov    QWORD PTR [rbp-0x40],rax
    7795:	48 89 55 c8          	mov    QWORD PTR [rbp-0x38],rdx
    7799:	48 8b 45 a8          	mov    rax,QWORD PTR [rbp-0x58]
    779d:	48 05 20 01 00 00    	add    rax,0x120
    77a3:	48 89 c7             	mov    rdi,rax
    77a6:	e8 09 d4 ff ff       	call   4bb4 <_ZNKSt7__cxx1112basic_stringIcSt11char_traitsIcESaIcEE4sizeEv>
    77ab:	48 85 c0             	test   rax,rax
    77ae:	0f 95 c0             	setne  al
    77b1:	84 c0                	test   al,al
    77b3:	74 46                	je     77fb <_ZNSt8__format9_Seq_sinkINSt7__cxx1112basic_stringIcSt11char_traitsIcESaIcEEEE4viewEv+0xcd>
    77b5:	48 8d 45 c0          	lea    rax,[rbp-0x40]
    77b9:	48 89 c7             	mov    rdi,rax
    77bc:	e8 a7 dc ff ff       	call   5468 <_ZNKSt4spanIcLm18446744073709551615EE4sizeEv>
    77c1:	48 85 c0             	test   rax,rax
    77c4:	0f 95 c0             	setne  al
    77c7:	84 c0                	test   al,al
    77c9:	74 0c                	je     77d7 <_ZNSt8__format9_Seq_sinkINSt7__cxx1112basic_stringIcSt11char_traitsIcESaIcEEEE4viewEv+0xa9>
    77cb:	48 8b 45 a8          	mov    rax,QWORD PTR [rbp-0x58]
    77cf:	48 89 c7             	mov    rdi,rax
    77d2:	e8 fd 21 00 00       	call   99d4 <_ZNSt8__format9_Seq_sinkINSt7__cxx1112basic_stringIcSt11char_traitsIcESaIcEEEE11_M_overflowEv>
    77d7:	48 8b 45 a8          	mov    rax,QWORD PTR [rbp-0x58]
    77db:	48 8d 90 20 01 00 00 	lea    rdx,[rax+0x120]
    77e2:	48 8d 45 d0          	lea    rax,[rbp-0x30]
    77e6:	48 89 d6             	mov    rsi,rdx
    77e9:	48 89 c7             	mov    rdi,rax
    77ec:	e8 fd 22 00 00       	call   9aee <_ZNSt4spanIcLm18446744073709551615EEC1IRNSt7__cxx1112basic_stringIcSt11char_traitsIcESaIcEEEEEOT_>
    77f1:	48 8b 45 d0          	mov    rax,QWORD PTR [rbp-0x30]
    77f5:	48 8b 55 d8          	mov    rdx,QWORD PTR [rbp-0x28]
    77f9:	eb 08                	jmp    7803 <_ZNSt8__format9_Seq_sinkINSt7__cxx1112basic_stringIcSt11char_traitsIcESaIcEEEE4viewEv+0xd5>
    77fb:	48 8b 45 c0          	mov    rax,QWORD PTR [rbp-0x40]
    77ff:	48 8b 55 c8          	mov    rdx,QWORD PTR [rbp-0x38]
    7803:	48 8b 4d e8          	mov    rcx,QWORD PTR [rbp-0x18]
    7807:	64 48 2b 0c 25 28 00 	sub    rcx,QWORD PTR fs:0x28
    780e:	00 00 
    7810:	74 05                	je     7817 <_ZNSt8__format9_Seq_sinkINSt7__cxx1112basic_stringIcSt11char_traitsIcESaIcEEEE4viewEv+0xe9>
    7812:	e8 49 ca ff ff       	call   4260 <__stack_chk_fail@plt>
    7817:	48 8b 5d f8          	mov    rbx,QWORD PTR [rbp-0x8]
    781b:	c9                   	leave
    781c:	c3                   	ret

000000000000781d <_ZSt7printlnIJEEvSt19basic_format_stringIcJDpNSt13type_identityIT_E4typeEEEDpOS2_>:
    781d:	55                   	push   rbp
    781e:	48 89 e5             	mov    rbp,rsp
    7821:	48 83 ec 10          	sub    rsp,0x10
    7825:	48 89 f8             	mov    rax,rdi
    7828:	48 89 f1             	mov    rcx,rsi
    782b:	48 89 c0             	mov    rax,rax
    782e:	ba 00 00 00 00       	mov    edx,0x0
    7833:	48 89 ca             	mov    rdx,rcx
    7836:	48 89 45 f0          	mov    QWORD PTR [rbp-0x10],rax
    783a:	48 89 55 f8          	mov    QWORD PTR [rbp-0x8],rdx
    783e:	48 8b 05 8b e9 01 00 	mov    rax,QWORD PTR [rip+0x1e98b]        # 261d0 <stdout@GLIBC_2.2.5>
    7845:	48 8b 4d f0          	mov    rcx,QWORD PTR [rbp-0x10]
    7849:	48 8b 55 f8          	mov    rdx,QWORD PTR [rbp-0x8]
    784d:	48 89 ce             	mov    rsi,rcx
    7850:	48 89 c7             	mov    rdi,rax
    7853:	e8 24 25 00 00       	call   9d7c <_ZSt7printlnIJEEvP8_IO_FILESt19basic_format_stringIcJDpNSt13type_identityIT_E4typeEEEDpOS4_>
    7858:	90                   	nop
    7859:	c9                   	leave
    785a:	c3                   	ret
    785b:	90                   	nop

000000000000785c <_ZNSt26basic_format_parse_contextIcE11next_arg_idEv>:
    785c:	55                   	push   rbp
    785d:	48 89 e5             	mov    rbp,rsp
    7860:	48 83 ec 10          	sub    rsp,0x10
    7864:	48 89 7d f8          	mov    QWORD PTR [rbp-0x8],rdi
    7868:	48 8b 45 f8          	mov    rax,QWORD PTR [rbp-0x8]
    786c:	8b 40 10             	mov    eax,DWORD PTR [rax+0x10]
    786f:	83 f8 01             	cmp    eax,0x1
    7872:	75 05                	jne    7879 <_ZNSt26basic_format_parse_contextIcE11next_arg_idEv+0x1d>
    7874:	e8 45 d8 ff ff       	call   50be <_ZNSt8__format39__conflicting_indexing_in_format_stringEv>
    7879:	48 8b 45 f8          	mov    rax,QWORD PTR [rbp-0x8]
    787d:	c7 40 10 02 00 00 00 	mov    DWORD PTR [rax+0x10],0x2
    7884:	e8 20 cc ff ff       	call   44a9 <_ZSt21is_constant_evaluatedv>
    7889:	84 c0                	test   al,al
    788b:	74 1a                	je     78a7 <_ZNSt26basic_format_parse_contextIcE11next_arg_idEv+0x4b>
    788d:	48 8b 45 f8          	mov    rax,QWORD PTR [rbp-0x8]
    7891:	48 8b 50 18          	mov    rdx,QWORD PTR [rax+0x18]
    7895:	48 8b 45 f8          	mov    rax,QWORD PTR [rbp-0x8]
    7899:	48 8b 40 20          	mov    rax,QWORD PTR [rax+0x20]
    789d:	48 39 c2             	cmp    rdx,rax
    78a0:	75 05                	jne    78a7 <_ZNSt26basic_format_parse_contextIcE11next_arg_idEv+0x4b>
    78a2:	e8 2a d8 ff ff       	call   50d1 <_ZNSt8__format33__invalid_arg_id_in_format_stringEv>
    78a7:	48 8b 45 f8          	mov    rax,QWORD PTR [rbp-0x8]
    78ab:	48 8b 40 18          	mov    rax,QWORD PTR [rax+0x18]
    78af:	48 8d 48 01          	lea    rcx,[rax+0x1]
    78b3:	48 8b 55 f8          	mov    rdx,QWORD PTR [rbp-0x8]
    78b7:	48 89 4a 18          	mov    QWORD PTR [rdx+0x18],rcx
    78bb:	c9                   	leave
    78bc:	c3                   	ret

00000000000078bd <_ZSt3getILm0EtPKcEONSt13tuple_elementIXT_ESt4pairIT0_T1_EE4typeEOS6_>:
    78bd:	55                   	push   rbp
    78be:	48 89 e5             	mov    rbp,rsp
    78c1:	48 83 ec 10          	sub    rsp,0x10
    78c5:	48 89 7d f8          	mov    QWORD PTR [rbp-0x8],rdi
    78c9:	48 8b 45 f8          	mov    rax,QWORD PTR [rbp-0x8]
    78cd:	48 89 c7             	mov    rdi,rax
